---
triple:          'arm64-apple-darwin'
binary-path:     '/Users/dawidpawliczek4/Studia/UWr/aisd/pracownie/1/output/chodnik-graf'
relocations:
  - { offsetInCU: 0x9A1D, offset: 0x9A1D, size: 0x8, addend: 0x0, symName: __ZNSt3__17advanceB7v160006IP6KostkammvEEvRT_T0_, symObjAddr: 0xB4B0, symBinAddr: 0x10000D460, symSize: 0x50 }
  - { offsetInCU: 0x9A88, offset: 0x9A88, size: 0x8, addend: 0x0, symName: __ZNSt3__124__put_character_sequenceB7v160006IcNS_11char_traitsIcEEEERNS_13basic_ostreamIT_T0_EES7_PKS4_m, symObjAddr: 0xC2D4, symBinAddr: 0x10000E284, symSize: 0x1F4 }
  - { offsetInCU: 0xC49E, offset: 0xC49E, size: 0x8, addend: 0x0, symName: __ZNSt3__1neB7v160006IP6KostkaEEbRKNS_11__wrap_iterIT_EES7_, symObjAddr: 0x96C, symBinAddr: 0x10000291C, symSize: 0x34 }
  - { offsetInCU: 0xC650, offset: 0xC650, size: 0x8, addend: 0x0, symName: __ZNSt3__1eqB7v160006ERKNS_19__hash_map_iteratorINS_15__hash_iteratorIPNS_11__hash_nodeINS_17__hash_value_typeIiNS_6vectorI6KostkaNS_9allocatorIS5_EEEEEEPvEEEEEESG_, symObjAddr: 0xCF8, symBinAddr: 0x100002CA8, symSize: 0x30 }
  - { offsetInCU: 0xC6A9, offset: 0xC6A9, size: 0x8, addend: 0x0, symName: __ZNSt3__14endlB7v160006IcNS_11char_traitsIcEEEERNS_13basic_ostreamIT_T0_EES7_, symObjAddr: 0xFE0, symBinAddr: 0x100002F90, symSize: 0x58 }
  - { offsetInCU: 0xC6E9, offset: 0xC6E9, size: 0x8, addend: 0x0, symName: __ZNSt3__1lsB7v160006INS_11char_traitsIcEEEERNS_13basic_ostreamIcT_EES6_PKc, symObjAddr: 0x1038, symBinAddr: 0x100002FE8, symSize: 0x48 }
  - { offsetInCU: 0xC72F, offset: 0xC72F, size: 0x8, addend: 0x0, symName: __ZNSt3__1neB7v160006ERKNS_16__deque_iteratorI5StatePS1_RS1_PS2_lLl56EEES7_, symObjAddr: 0x1680, symBinAddr: 0x100003630, symSize: 0x34 }
  - { offsetInCU: 0xC76C, offset: 0xC76C, size: 0x8, addend: 0x0, symName: __ZNSt3__1eqB7v160006ERKNS_16__deque_iteratorI5StatePS1_RS1_PS2_lLl56EEES7_, symObjAddr: 0x1914, symBinAddr: 0x1000038C4, symSize: 0x30 }
  - { offsetInCU: 0xC7A9, offset: 0xC7A9, size: 0x8, addend: 0x0, symName: __ZNSt3__130__libcpp_is_constant_evaluatedB7v160006Ev, symObjAddr: 0x1A64, symBinAddr: 0x100003A14, symSize: 0xC }
  - { offsetInCU: 0xC7C6, offset: 0xC7C6, size: 0x8, addend: 0x0, symName: __ZNSt3__119__libcpp_deallocateB7v160006EPvmm, symObjAddr: 0x1A70, symBinAddr: 0x100003A20, symSize: 0x30 }
  - { offsetInCU: 0xC80E, offset: 0xC80E, size: 0x8, addend: 0x0, symName: __ZNSt3__127__do_deallocate_handle_sizeB7v160006IJEEEvPvmDpT_, symObjAddr: 0x1AA0, symBinAddr: 0x100003A50, symSize: 0x28 }
  - { offsetInCU: 0xC84C, offset: 0xC84C, size: 0x8, addend: 0x0, symName: __ZNSt3__124__libcpp_operator_deleteB7v160006IJPvEEEvDpT_, symObjAddr: 0x1AC8, symBinAddr: 0x100003A78, symSize: 0x24 }
  - { offsetInCU: 0xC881, offset: 0xC881, size: 0x8, addend: 0x0, symName: __ZNSt3__112__to_addressB7v160006IP5StateEEPT_S4_, symObjAddr: 0x1D54, symBinAddr: 0x100003D04, symSize: 0x14 }
  - { offsetInCU: 0xC8B6, offset: 0xC8B6, size: 0x8, addend: 0x0, symName: __ZNSt3__119__debug_db_insert_cB7v160006INS_6vectorI6KostkaNS_9allocatorIS2_EEEEEEvPT_, symObjAddr: 0x1F0C, symBinAddr: 0x100003EBC, symSize: 0x10 }
  - { offsetInCU: 0xC8E7, offset: 0xC8E7, size: 0x8, addend: 0x0, symName: __ZNSt3__118__debug_db_erase_cB7v160006INS_6vectorI6KostkaNS_9allocatorIS2_EEEEEEvPT_, symObjAddr: 0x21E4, symBinAddr: 0x100004194, symSize: 0x10 }
  - { offsetInCU: 0xC918, offset: 0xC918, size: 0x8, addend: 0x0, symName: __ZNSt3__112__to_addressB7v160006I6KostkaEEPT_S3_, symObjAddr: 0x2300, symBinAddr: 0x1000042B0, symSize: 0x14 }
  - { offsetInCU: 0xC94D, offset: 0xC94D, size: 0x8, addend: 0x0, symName: __ZNSt3__13maxB7v160006ImEERKT_S3_S3_, symObjAddr: 0x2ADC, symBinAddr: 0x100004A8C, symSize: 0x2C }
  - { offsetInCU: 0xC990, offset: 0xC990, size: 0x8, addend: 0x0, symName: __ZNSt3__13minB7v160006ImEERKT_S3_S3_, symObjAddr: 0x2B08, symBinAddr: 0x100004AB8, symSize: 0x2C }
  - { offsetInCU: 0xCBD4, offset: 0xCBD4, size: 0x8, addend: 0x0, symName: __ZNSt3__13minB7v160006ImNS_6__lessImmEEEERKT_S5_S5_T0_, symObjAddr: 0x2B94, symBinAddr: 0x100004B44, symSize: 0x54 }
  - { offsetInCU: 0xCC69, offset: 0xCC69, size: 0x8, addend: 0x0, symName: __ZNSt3__120__throw_length_errorB7v160006EPKc, symObjAddr: 0x2C74, symBinAddr: 0x100004C24, symSize: 0x64 }
  - { offsetInCU: 0xCC91, offset: 0xCC91, size: 0x8, addend: 0x0, symName: __ZNSt3__13maxB7v160006ImNS_6__lessImmEEEERKT_S5_S5_T0_, symObjAddr: 0x2D58, symBinAddr: 0x100004D08, symSize: 0x54 }
  - { offsetInCU: 0xCCEB, offset: 0xCCEB, size: 0x8, addend: 0x0, symName: __ZNSt3__119__allocate_at_leastB7v160006INS_9allocatorI6KostkaEEEENS_19__allocation_resultINS_16allocator_traitsIT_E7pointerEEERS6_m, symObjAddr: 0x2EC8, symBinAddr: 0x100004E78, symSize: 0x40 }
  - { offsetInCU: 0xCD2E, offset: 0xCD2E, size: 0x8, addend: 0x0, symName: __ZNSt3__117__libcpp_allocateB7v160006Emm, symObjAddr: 0x3080, symBinAddr: 0x100005030, symSize: 0x28 }
  - { offsetInCU: 0xCD6B, offset: 0xCD6B, size: 0x8, addend: 0x0, symName: __ZNSt3__121__libcpp_operator_newB7v160006IJmEEEPvDpT_, symObjAddr: 0x30A8, symBinAddr: 0x100005058, symSize: 0x24 }
  - { offsetInCU: 0xCDA4, offset: 0xCDA4, size: 0x8, addend: 0x0, symName: __ZNSt3__142__uninitialized_allocator_move_if_noexceptB7v160006INS_9allocatorI6KostkaEENS_16reverse_iteratorIPS2_EES6_S2_vEET1_RT_T0_SA_S7_, symObjAddr: 0x3130, symBinAddr: 0x1000050E0, symSize: 0xE8 }
  - { offsetInCU: 0xCE21, offset: 0xCE21, size: 0x8, addend: 0x0, symName: __ZNSt3__14swapB7v160006IP6KostkaEEvRT_S4_, symObjAddr: 0x3264, symBinAddr: 0x100005214, symSize: 0x3C }
  - { offsetInCU: 0xCE72, offset: 0xCE72, size: 0x8, addend: 0x0, symName: __ZNSt3__125__debug_db_invalidate_allB7v160006INS_6vectorI6KostkaNS_9allocatorIS2_EEEEEEvPT_, symObjAddr: 0x3368, symBinAddr: 0x100005318, symSize: 0x10 }
  - { offsetInCU: 0xCEA3, offset: 0xCEA3, size: 0x8, addend: 0x0, symName: __ZNSt3__1neB7v160006IP6KostkaS2_EEbRKNS_16reverse_iteratorIT_EERKNS3_IT0_EE, symObjAddr: 0x3378, symBinAddr: 0x100005328, symSize: 0x48 }
  - { offsetInCU: 0xCF14, offset: 0xCF14, size: 0x8, addend: 0x0, symName: __ZNSt3__114__construct_atB7v160006I6KostkaJS1_EPS1_EEPT_S4_DpOT0_, symObjAddr: 0x33C0, symBinAddr: 0x100005370, symSize: 0x34 }
  - { offsetInCU: 0xCF84, offset: 0xCF84, size: 0x8, addend: 0x0, symName: __ZNSt3__112__to_addressB7v160006INS_16reverse_iteratorIP6KostkaEEvEENS_5decayIDTclsr19__to_address_helperIT_EE6__callclsr3stdE7declvalIRKS6_EEEEE4typeES8_, symObjAddr: 0x33F4, symBinAddr: 0x1000053A4, symSize: 0x24 }
  - { offsetInCU: 0xCFBA, offset: 0xCFBA, size: 0x8, addend: 0x0, symName: __ZNSt3__14moveB7v160006INS_16reverse_iteratorIP6KostkaEES4_EET0_T_S6_S5_, symObjAddr: 0x3460, symBinAddr: 0x100005410, symSize: 0x78 }
  - { offsetInCU: 0xD03D, offset: 0xD03D, size: 0x8, addend: 0x0, symName: __ZNSt3__16__moveB7v160006INS_17_ClassicAlgPolicyENS_16reverse_iteratorIP6KostkaEES5_S5_EENS_4pairIT0_T2_EES7_T1_S8_, symObjAddr: 0x3548, symBinAddr: 0x1000054F8, symSize: 0x64 }
  - { offsetInCU: 0xD0A9, offset: 0xD0A9, size: 0x8, addend: 0x0, symName: __ZNSt3__123__dispatch_copy_or_moveB7v160006INS_17_ClassicAlgPolicyENS_11__move_loopIS1_EENS_14__move_trivialENS_16reverse_iteratorIP6KostkaEES8_S8_EENS_4pairIT2_T4_EESA_T3_SB_, symObjAddr: 0x35AC, symBinAddr: 0x10000555C, symSize: 0x7C }
  - { offsetInCU: 0xD127, offset: 0xD127, size: 0x8, addend: 0x0, symName: __ZNSt3__121__unwrap_and_dispatchB7v160006INS_10__overloadINS_11__move_loopINS_17_ClassicAlgPolicyEEENS_14__move_trivialEEENS_16reverse_iteratorIP6KostkaEESA_SA_Li0EEENS_4pairIT0_T2_EESC_T1_SD_, symObjAddr: 0x3628, symBinAddr: 0x1000055D8, symSize: 0x12C }
  - { offsetInCU: 0xD1B7, offset: 0xD1B7, size: 0x8, addend: 0x0, symName: __ZNSt3__114__unwrap_rangeB7v160006INS_16reverse_iteratorIP6KostkaEES4_EENS_4pairIT0_S6_EET_S8_, symObjAddr: 0x3754, symBinAddr: 0x100005704, symSize: 0x84 }
  - { offsetInCU: 0xD30B, offset: 0xD30B, size: 0x8, addend: 0x0, symName: __ZNSt3__113__unwrap_iterB7v160006INS_16reverse_iteratorIP6KostkaEENS_18__unwrap_iter_implIS4_Lb0EEELi0EEEDTclsrT0_8__unwrapclsr3stdE7declvalIT_EEEES8_, symObjAddr: 0x3880, symBinAddr: 0x100005830, symSize: 0x44 }
  - { offsetInCU: 0xD34F, offset: 0xD34F, size: 0x8, addend: 0x0, symName: __ZNSt3__19make_pairB7v160006INS_16reverse_iteratorIP6KostkaEES4_EENS_4pairINS_18__unwrap_ref_decayIT_E4typeENS6_IT0_E4typeEEEOS7_OSA_, symObjAddr: 0x38C4, symBinAddr: 0x100005874, symSize: 0x38 }
  - { offsetInCU: 0xD39E, offset: 0xD39E, size: 0x8, addend: 0x0, symName: __ZNSt3__114__rewrap_rangeB7v160006INS_16reverse_iteratorIP6KostkaEES4_EET_S5_T0_, symObjAddr: 0x38FC, symBinAddr: 0x1000058AC, symSize: 0x5C }
  - { offsetInCU: 0xD3EA, offset: 0xD3EA, size: 0x8, addend: 0x0, symName: __ZNSt3__113__rewrap_iterB7v160006INS_16reverse_iteratorIP6KostkaEES4_NS_18__unwrap_iter_implIS4_Lb0EEEEET_S7_T0_, symObjAddr: 0x3958, symBinAddr: 0x100005908, symSize: 0x88 }
  - { offsetInCU: 0xD4F1, offset: 0xD4F1, size: 0x8, addend: 0x0, symName: __ZNSt3__119__debug_db_insert_cB7v160006INS_13unordered_mapIiNS_6vectorI6KostkaNS_9allocatorIS3_EEEENS_4hashIiEENS_8equal_toIiEENS4_INS_4pairIKiS6_EEEEEEEEvPT_, symObjAddr: 0x3D78, symBinAddr: 0x100005D28, symSize: 0x10 }
  - { offsetInCU: 0xD522, offset: 0xD522, size: 0x8, addend: 0x0, symName: __ZNSt3__118__debug_db_erase_cB7v160006INS_12__hash_tableINS_17__hash_value_typeIiNS_6vectorI6KostkaNS_9allocatorIS4_EEEEEENS_22__unordered_map_hasherIiS8_NS_4hashIiEENS_8equal_toIiEELb1EEENS_21__unordered_map_equalIiS8_SD_SB_Lb1EEENS5_IS8_EEEEEEvPT_, symObjAddr: 0x4818, symBinAddr: 0x1000067C8, symSize: 0x10 }
  - { offsetInCU: 0xD586, offset: 0xD586, size: 0x8, addend: 0x0, symName: __ZNSt3__1eqB7v160006IP6KostkaEEbRKNS_11__wrap_iterIT_EES7_, symObjAddr: 0x4AF8, symBinAddr: 0x100006AA8, symSize: 0x48 }
  - { offsetInCU: 0xD5C9, offset: 0xD5C9, size: 0x8, addend: 0x0, symName: __ZNSt3__1neB7v160006ERKNS_19__hash_map_iteratorINS_15__hash_iteratorIPNS_11__hash_nodeINS_17__hash_value_typeIiNS_6vectorI6KostkaNS_9allocatorIS5_EEEEEEPvEEEEEESG_, symObjAddr: 0x4B58, symBinAddr: 0x100006B08, symSize: 0x30 }
  - { offsetInCU: 0xD606, offset: 0xD606, size: 0x8, addend: 0x0, symName: __ZNSt3__1neB7v160006ERKNS_15__hash_iteratorIPNS_11__hash_nodeINS_17__hash_value_typeIiNS_6vectorI6KostkaNS_9allocatorIS4_EEEEEEPvEEEESE_, symObjAddr: 0x4E8C, symBinAddr: 0x100006E3C, symSize: 0x34 }
  - { offsetInCU: 0xD643, offset: 0xD643, size: 0x8, addend: 0x0, symName: __ZNSt3__1eqB7v160006ERKNS_15__hash_iteratorIPNS_11__hash_nodeINS_17__hash_value_typeIiNS_6vectorI6KostkaNS_9allocatorIS4_EEEEEEPvEEEESE_, symObjAddr: 0x4EC0, symBinAddr: 0x100006E70, symSize: 0x30 }
  - { offsetInCU: 0xD704, offset: 0xD704, size: 0x8, addend: 0x0, symName: __ZNSt3__116__constrain_hashB7v160006Emm, symObjAddr: 0x58AC, symBinAddr: 0x10000785C, symSize: 0x98 }
  - { offsetInCU: 0xD73E, offset: 0xD73E, size: 0x8, addend: 0x0, symName: __ZNSt3__116__is_hash_power2B7v160006Em, symObjAddr: 0x5A70, symBinAddr: 0x100007A20, symSize: 0x50 }
  - { offsetInCU: 0xD76A, offset: 0xD76A, size: 0x8, addend: 0x0, symName: __ZNSt3__116__next_hash_pow2B7v160006Em, symObjAddr: 0x60BC, symBinAddr: 0x10000806C, symSize: 0x6C }
  - { offsetInCU: 0xD796, offset: 0xD796, size: 0x8, addend: 0x0, symName: __ZNSt3__125__debug_db_invalidate_allB7v160006INS_12__hash_tableINS_17__hash_value_typeIiNS_6vectorI6KostkaNS_9allocatorIS4_EEEEEENS_22__unordered_map_hasherIiS8_NS_4hashIiEENS_8equal_toIiEELb1EEENS_21__unordered_map_equalIiS8_SD_SB_Lb1EEENS5_IS8_EEEEEEvPT_, symObjAddr: 0x6128, symBinAddr: 0x1000080D8, symSize: 0x10 }
  - { offsetInCU: 0xD7C7, offset: 0xD7C7, size: 0x8, addend: 0x0, symName: __ZNSt3__112__libcpp_clzB7v160006Em, symObjAddr: 0x62BC, symBinAddr: 0x10000826C, symSize: 0x1C }
  - { offsetInCU: 0xD811, offset: 0xD811, size: 0x8, addend: 0x0, symName: __ZNSt3__1neB7v160006ERKNS_25__hash_map_const_iteratorINS_21__hash_const_iteratorIPNS_11__hash_nodeINS_17__hash_value_typeIiNS_6vectorI6KostkaNS_9allocatorIS5_EEEEEEPvEEEEEESG_, symObjAddr: 0x7194, symBinAddr: 0x100009144, symSize: 0x30 }
  - { offsetInCU: 0xD84E, offset: 0xD84E, size: 0x8, addend: 0x0, symName: __ZNSt3__1neB7v160006ERKNS_21__hash_const_iteratorIPNS_11__hash_nodeINS_17__hash_value_typeIiNS_6vectorI6KostkaNS_9allocatorIS4_EEEEEEPvEEEESE_, symObjAddr: 0x7268, symBinAddr: 0x100009218, symSize: 0x34 }
  - { offsetInCU: 0xD88B, offset: 0xD88B, size: 0x8, addend: 0x0, symName: __ZNSt3__1eqB7v160006ERKNS_21__hash_const_iteratorIPNS_11__hash_nodeINS_17__hash_value_typeIiNS_6vectorI6KostkaNS_9allocatorIS4_EEEEEEPvEEEESE_, symObjAddr: 0x729C, symBinAddr: 0x10000924C, symSize: 0x30 }
  - { offsetInCU: 0xDDA2, offset: 0xDDA2, size: 0x8, addend: 0x0, symName: __ZNSt3__14swapB7v160006IPP5StateEEvRT_S5_, symObjAddr: 0x92D8, symBinAddr: 0x10000B288, symSize: 0x3C }
  - { offsetInCU: 0xDDF3, offset: 0xDDF3, size: 0x8, addend: 0x0, symName: __ZNSt3__14moveB7v160006IPP5StateS3_EET0_T_S5_S4_, symObjAddr: 0x93BC, symBinAddr: 0x10000B36C, symSize: 0x40 }
  - { offsetInCU: 0xDE4D, offset: 0xDE4D, size: 0x8, addend: 0x0, symName: __ZNSt3__16__moveB7v160006INS_17_ClassicAlgPolicyEPP5StateS4_S4_EENS_4pairIT0_T2_EES6_T1_S7_, symObjAddr: 0x9568, symBinAddr: 0x10000B518, symSize: 0x44 }
  - { offsetInCU: 0xDEB9, offset: 0xDEB9, size: 0x8, addend: 0x0, symName: __ZNSt3__123__dispatch_copy_or_moveB7v160006INS_17_ClassicAlgPolicyENS_11__move_loopIS1_EENS_14__move_trivialEPP5StateS7_S7_EENS_4pairIT2_T4_EES9_T3_SA_, symObjAddr: 0x95AC, symBinAddr: 0x10000B55C, symSize: 0x54 }
  - { offsetInCU: 0xDF37, offset: 0xDF37, size: 0x8, addend: 0x0, symName: __ZNSt3__121__unwrap_and_dispatchB7v160006INS_10__overloadINS_11__move_loopINS_17_ClassicAlgPolicyEEENS_14__move_trivialEEEPP5StateS9_S9_Li0EEENS_4pairIT0_T2_EESB_T1_SC_, symObjAddr: 0x9600, symBinAddr: 0x10000B5B0, symSize: 0xB4 }
  - { offsetInCU: 0xDFC5, offset: 0xDFC5, size: 0x8, addend: 0x0, symName: __ZNSt3__114__unwrap_rangeB7v160006IPP5StateS3_EENS_4pairIT0_S5_EET_S7_, symObjAddr: 0x96B4, symBinAddr: 0x10000B664, symSize: 0x60 }
  - { offsetInCU: 0xE140, offset: 0xE140, size: 0x8, addend: 0x0, symName: __ZNSt3__113__unwrap_iterB7v160006IPP5StateNS_18__unwrap_iter_implIS3_Lb1EEELi0EEEDTclsrT0_8__unwrapclsr3stdE7declvalIT_EEEES7_, symObjAddr: 0x975C, symBinAddr: 0x10000B70C, symSize: 0x24 }
  - { offsetInCU: 0xE184, offset: 0xE184, size: 0x8, addend: 0x0, symName: __ZNSt3__19make_pairB7v160006IPP5StateS3_EENS_4pairINS_18__unwrap_ref_decayIT_E4typeENS5_IT0_E4typeEEEOS6_OS9_, symObjAddr: 0x9780, symBinAddr: 0x10000B730, symSize: 0x38 }
  - { offsetInCU: 0xE1D3, offset: 0xE1D3, size: 0x8, addend: 0x0, symName: __ZNSt3__114__rewrap_rangeB7v160006IPP5StateS3_EET_S4_T0_, symObjAddr: 0x97B8, symBinAddr: 0x10000B768, symSize: 0x2C }
  - { offsetInCU: 0xE21F, offset: 0xE21F, size: 0x8, addend: 0x0, symName: __ZNSt3__113__rewrap_iterB7v160006IPP5StateS3_NS_18__unwrap_iter_implIS3_Lb1EEEEET_S6_T0_, symObjAddr: 0x97E4, symBinAddr: 0x10000B794, symSize: 0x50 }
  - { offsetInCU: 0xE274, offset: 0xE274, size: 0x8, addend: 0x0, symName: __ZNSt3__119__copy_trivial_implB7v160006IP5StateS2_EENS_4pairIPT_PT0_EES5_S5_S7_, symObjAddr: 0x9834, symBinAddr: 0x10000B7E4, symSize: 0x84 }
  - { offsetInCU: 0xE2DC, offset: 0xE2DC, size: 0x8, addend: 0x0, symName: __ZNSt3__19make_pairB7v160006IRPP5StateS3_EENS_4pairINS_18__unwrap_ref_decayIT_E4typeENS6_IT0_E4typeEEEOS7_OSA_, symObjAddr: 0x98B8, symBinAddr: 0x10000B868, symSize: 0x38 }
  - { offsetInCU: 0xE37E, offset: 0xE37E, size: 0x8, addend: 0x0, symName: __ZNSt3__18distanceB7v160006INS_13move_iteratorIPP5StateEEEENS_15iterator_traitsIT_E15difference_typeES7_S7_, symObjAddr: 0x99D4, symBinAddr: 0x10000B984, symSize: 0x3C }
  - { offsetInCU: 0xE3C1, offset: 0xE3C1, size: 0x8, addend: 0x0, symName: __ZNSt3__110__distanceB7v160006INS_13move_iteratorIPP5StateEEEENS_15iterator_traitsIT_E15difference_typeES7_S7_NS_26random_access_iterator_tagE, symObjAddr: 0x9B0C, symBinAddr: 0x10000BABC, symSize: 0x30 }
  - { offsetInCU: 0xE40E, offset: 0xE40E, size: 0x8, addend: 0x0, symName: __ZNSt3__1miB7v160006IPP5StateS3_EENS_13move_iteratorIT_E15difference_typeERKS6_RKNS4_IT0_EE, symObjAddr: 0x9B3C, symBinAddr: 0x10000BAEC, symSize: 0x48 }
  - { offsetInCU: 0xE45D, offset: 0xE45D, size: 0x8, addend: 0x0, symName: __ZNSt3__113move_backwardB7v160006IPP5StateS3_EET0_T_S5_S4_, symObjAddr: 0x9D80, symBinAddr: 0x10000BD30, symSize: 0x40 }
  - { offsetInCU: 0xE4B7, offset: 0xE4B7, size: 0x8, addend: 0x0, symName: __ZNSt3__115__move_backwardB7v160006INS_17_ClassicAlgPolicyEPP5StateS4_S4_EENS_4pairIT0_T2_EES6_T1_S7_, symObjAddr: 0x9DC0, symBinAddr: 0x10000BD70, symSize: 0x44 }
  - { offsetInCU: 0xE523, offset: 0xE523, size: 0x8, addend: 0x0, symName: __ZNSt3__123__dispatch_copy_or_moveB7v160006INS_17_ClassicAlgPolicyENS_20__move_backward_loopIS1_EENS_23__move_backward_trivialEPP5StateS7_S7_EENS_4pairIT2_T4_EES9_T3_SA_, symObjAddr: 0x9E04, symBinAddr: 0x10000BDB4, symSize: 0x54 }
  - { offsetInCU: 0xE5A1, offset: 0xE5A1, size: 0x8, addend: 0x0, symName: __ZNSt3__121__unwrap_and_dispatchB7v160006INS_10__overloadINS_20__move_backward_loopINS_17_ClassicAlgPolicyEEENS_23__move_backward_trivialEEEPP5StateS9_S9_Li0EEENS_4pairIT0_T2_EESB_T1_SC_, symObjAddr: 0x9E58, symBinAddr: 0x10000BE08, symSize: 0xB4 }
  - { offsetInCU: 0xE675, offset: 0xE675, size: 0x8, addend: 0x0, symName: __ZNSt3__128__copy_backward_trivial_implB7v160006IP5StateS2_EENS_4pairIPT_PT0_EES5_S5_S7_, symObjAddr: 0x9F54, symBinAddr: 0x10000BF04, symSize: 0x94 }
  - { offsetInCU: 0xE6DD, offset: 0xE6DD, size: 0x8, addend: 0x0, symName: __ZNSt3__19make_pairB7v160006IRPP5StateS4_EENS_4pairINS_18__unwrap_ref_decayIT_E4typeENS6_IT0_E4typeEEEOS7_OSA_, symObjAddr: 0x9FE8, symBinAddr: 0x10000BF98, symSize: 0x38 }
  - { offsetInCU: 0xE72C, offset: 0xE72C, size: 0x8, addend: 0x0, symName: __ZNSt3__119__allocate_at_leastB7v160006INS_9allocatorIP5StateEEEENS_19__allocation_resultINS_16allocator_traitsIT_E7pointerEEERS7_m, symObjAddr: 0xA130, symBinAddr: 0x10000C0E0, symSize: 0x40 }
  - { offsetInCU: 0xE76F, offset: 0xE76F, size: 0x8, addend: 0x0, symName: __ZNSt3__122__make_exception_guardB7v160006INS_6vectorI6KostkaNS_9allocatorIS2_EEE16__destroy_vectorEEENS_28__exception_guard_exceptionsIT_EES8_, symObjAddr: 0xA9F4, symBinAddr: 0x10000C9A4, symSize: 0x40 }
  - { offsetInCU: 0xE7A4, offset: 0xE7A4, size: 0x8, addend: 0x0, symName: __ZNSt3__130__uninitialized_allocator_copyB7v160006INS_9allocatorI6KostkaEEPS2_S4_S4_EET2_RT_T0_T1_S5_, symObjAddr: 0xAC78, symBinAddr: 0x10000CC28, symSize: 0xFC }
  - { offsetInCU: 0xE842, offset: 0xE842, size: 0x8, addend: 0x0, symName: __ZNSt3__122__make_exception_guardB7v160006INS_29_AllocatorDestroyRangeReverseINS_9allocatorI6KostkaEEPS3_EEEENS_28__exception_guard_exceptionsIT_EES8_, symObjAddr: 0xAD74, symBinAddr: 0x10000CD24, symSize: 0x4C }
  - { offsetInCU: 0xE878, offset: 0xE878, size: 0x8, addend: 0x0, symName: __ZNSt3__119__allocator_destroyB7v160006INS_9allocatorI6KostkaEENS_16reverse_iteratorIPS2_EES6_EEvRT_T0_T1_, symObjAddr: 0xAFFC, symBinAddr: 0x10000CFAC, symSize: 0x70 }
  - { offsetInCU: 0xE8DB, offset: 0xE8DB, size: 0x8, addend: 0x0, symName: __ZNSt3__112__to_addressB7v160006I5StateEEPT_S3_, symObjAddr: 0xB174, symBinAddr: 0x10000D124, symSize: 0x14 }
  - { offsetInCU: 0xE910, offset: 0xE910, size: 0x8, addend: 0x0, symName: __ZNSt3__18distanceB7v160006IP6KostkaEENS_15iterator_traitsIT_E15difference_typeES4_S4_, symObjAddr: 0xB484, symBinAddr: 0x10000D434, symSize: 0x2C }
  - { offsetInCU: 0xE953, offset: 0xE953, size: 0x8, addend: 0x0, symName: __ZNSt3__14copyB7v160006IP6KostkaS2_EET0_T_S4_S3_, symObjAddr: 0xB500, symBinAddr: 0x10000D4B0, symSize: 0x40 }
  - { offsetInCU: 0xE9AD, offset: 0xE9AD, size: 0x8, addend: 0x0, symName: __ZNSt3__110__distanceB7v160006IP6KostkaEENS_15iterator_traitsIT_E15difference_typeES4_S4_NS_26random_access_iterator_tagE, symObjAddr: 0xB654, symBinAddr: 0x10000D604, symSize: 0x28 }
  - { offsetInCU: 0xE9FA, offset: 0xE9FA, size: 0x8, addend: 0x0, symName: __ZNSt3__121__convert_to_integralB7v160006Em, symObjAddr: 0xB67C, symBinAddr: 0x10000D62C, symSize: 0x14 }
  - { offsetInCU: 0xEA26, offset: 0xEA26, size: 0x8, addend: 0x0, symName: __ZNSt3__19__advanceB7v160006IP6KostkaEEvRT_NS_15iterator_traitsIS3_E15difference_typeENS_26random_access_iterator_tagE, symObjAddr: 0xB690, symBinAddr: 0x10000D640, symSize: 0x30 }
  - { offsetInCU: 0xEA6F, offset: 0xEA6F, size: 0x8, addend: 0x0, symName: __ZNSt3__16__copyB7v160006INS_17_ClassicAlgPolicyEP6KostkaS3_S3_EENS_4pairIT0_T2_EES5_T1_S6_, symObjAddr: 0xB6C0, symBinAddr: 0x10000D670, symSize: 0x44 }
  - { offsetInCU: 0xEADB, offset: 0xEADB, size: 0x8, addend: 0x0, symName: __ZNSt3__123__dispatch_copy_or_moveB7v160006INS_17_ClassicAlgPolicyENS_11__copy_loopIS1_EENS_14__copy_trivialEP6KostkaS6_S6_EENS_4pairIT2_T4_EES8_T3_S9_, symObjAddr: 0xB704, symBinAddr: 0x10000D6B4, symSize: 0x54 }
  - { offsetInCU: 0xEB59, offset: 0xEB59, size: 0x8, addend: 0x0, symName: __ZNSt3__121__unwrap_and_dispatchB7v160006INS_10__overloadINS_11__copy_loopINS_17_ClassicAlgPolicyEEENS_14__copy_trivialEEEP6KostkaS8_S8_Li0EEENS_4pairIT0_T2_EESA_T1_SB_, symObjAddr: 0xB758, symBinAddr: 0x10000D708, symSize: 0xB4 }
  - { offsetInCU: 0xEBE7, offset: 0xEBE7, size: 0x8, addend: 0x0, symName: __ZNSt3__114__unwrap_rangeB7v160006IP6KostkaS2_EENS_4pairIT0_S4_EET_S6_, symObjAddr: 0xB80C, symBinAddr: 0x10000D7BC, symSize: 0x60 }
  - { offsetInCU: 0xED26, offset: 0xED26, size: 0x8, addend: 0x0, symName: __ZNSt3__113__unwrap_iterB7v160006IP6KostkaNS_18__unwrap_iter_implIS2_Lb1EEELi0EEEDTclsrT0_8__unwrapclsr3stdE7declvalIT_EEEES6_, symObjAddr: 0xB8B4, symBinAddr: 0x10000D864, symSize: 0x24 }
  - { offsetInCU: 0xED6A, offset: 0xED6A, size: 0x8, addend: 0x0, symName: __ZNSt3__19make_pairB7v160006IP6KostkaS2_EENS_4pairINS_18__unwrap_ref_decayIT_E4typeENS4_IT0_E4typeEEEOS5_OS8_, symObjAddr: 0xB8D8, symBinAddr: 0x10000D888, symSize: 0x38 }
  - { offsetInCU: 0xEDB9, offset: 0xEDB9, size: 0x8, addend: 0x0, symName: __ZNSt3__114__rewrap_rangeB7v160006IP6KostkaS2_EET_S3_T0_, symObjAddr: 0xB910, symBinAddr: 0x10000D8C0, symSize: 0x2C }
  - { offsetInCU: 0xEE05, offset: 0xEE05, size: 0x8, addend: 0x0, symName: __ZNSt3__113__rewrap_iterB7v160006IP6KostkaS2_NS_18__unwrap_iter_implIS2_Lb1EEEEET_S5_T0_, symObjAddr: 0xB93C, symBinAddr: 0x10000D8EC, symSize: 0x50 }
  - { offsetInCU: 0xEE5A, offset: 0xEE5A, size: 0x8, addend: 0x0, symName: __ZNSt3__119__copy_trivial_implB7v160006I6KostkaS1_EENS_4pairIPT_PT0_EES4_S4_S6_, symObjAddr: 0xB98C, symBinAddr: 0x10000D93C, symSize: 0x8C }
  - { offsetInCU: 0xEEC2, offset: 0xEEC2, size: 0x8, addend: 0x0, symName: __ZNSt3__19make_pairB7v160006IRP6KostkaS2_EENS_4pairINS_18__unwrap_ref_decayIT_E4typeENS5_IT0_E4typeEEEOS6_OS9_, symObjAddr: 0xBA18, symBinAddr: 0x10000D9C8, symSize: 0x38 }
  - { offsetInCU: 0xEF64, offset: 0xEF64, size: 0x8, addend: 0x0, symName: __ZNSt3__1miB7v160006IPK6KostkaS3_EENS_11__wrap_iterIT_E15difference_typeERKS6_RKNS4_IT0_EE, symObjAddr: 0xBE80, symBinAddr: 0x10000DE30, symSize: 0x48 }
  - { offsetInCU: 0xEFB0, offset: 0xEFB0, size: 0x8, addend: 0x0, symName: __ZNSt3__14moveB7v160006IP6KostkaS2_EET0_T_S4_S3_, symObjAddr: 0xBEF4, symBinAddr: 0x10000DEA4, symSize: 0x40 }
  - { offsetInCU: 0xF00A, offset: 0xF00A, size: 0x8, addend: 0x0, symName: __ZNSt3__16__moveB7v160006INS_17_ClassicAlgPolicyEP6KostkaS3_S3_EENS_4pairIT0_T2_EES5_T1_S6_, symObjAddr: 0xC010, symBinAddr: 0x10000DFC0, symSize: 0x44 }
  - { offsetInCU: 0xF076, offset: 0xF076, size: 0x8, addend: 0x0, symName: __ZNSt3__123__dispatch_copy_or_moveB7v160006INS_17_ClassicAlgPolicyENS_11__move_loopIS1_EENS_14__move_trivialEP6KostkaS6_S6_EENS_4pairIT2_T4_EES8_T3_S9_, symObjAddr: 0xC054, symBinAddr: 0x10000E004, symSize: 0x54 }
  - { offsetInCU: 0xF0F4, offset: 0xF0F4, size: 0x8, addend: 0x0, symName: __ZNSt3__121__unwrap_and_dispatchB7v160006INS_10__overloadINS_11__move_loopINS_17_ClassicAlgPolicyEEENS_14__move_trivialEEEP6KostkaS8_S8_Li0EEENS_4pairIT0_T2_EESA_T1_SB_, symObjAddr: 0xC0A8, symBinAddr: 0x10000E058, symSize: 0xB4 }
  - { offsetInCU: 0xF182, offset: 0xF182, size: 0x8, addend: 0x0, symName: __ZNSt3__19use_facetB7v160006INS_5ctypeIcEEEERKT_RKNS_6localeE, symObjAddr: 0xC270, symBinAddr: 0x10000E220, symSize: 0x2C }
  - { offsetInCU: 0xF651, offset: 0xF651, size: 0x8, addend: 0x0, symName: __ZNSt3__116__pad_and_outputB7v160006IcNS_11char_traitsIcEEEENS_19ostreambuf_iteratorIT_T0_EES6_PKS4_S8_S8_RNS_8ios_baseES4_, symObjAddr: 0xC52C, symBinAddr: 0x10000E4DC, symSize: 0x248 }
  - { offsetInCU: 0xF720, offset: 0xF720, size: 0x8, addend: 0x0, symName: __ZNSt3__119__debug_db_insert_cB7v160006INS_12basic_stringIcNS_11char_traitsIcEENS_9allocatorIcEEEEEEvPT_, symObjAddr: 0xC9E8, symBinAddr: 0x10000E998, symSize: 0x10 }
  - { offsetInCU: 0xF751, offset: 0xF751, size: 0x8, addend: 0x0, symName: __ZNSt3__112__to_addressB7v160006IKcEEPT_S3_, symObjAddr: 0xCAB4, symBinAddr: 0x10000EA64, symSize: 0x14 }
  - { offsetInCU: 0xF7B9, offset: 0xF7B9, size: 0x8, addend: 0x0, symName: __ZNSt3__118__constexpr_strlenB7v160006EPKc, symObjAddr: 0xCD34, symBinAddr: 0x10000ECE4, symSize: 0x24 }
  - { offsetInCU: 0xFA9F, offset: 0xFA9F, size: 0x8, addend: 0x0, symName: __ZSt28__throw_bad_array_new_lengthB7v160006v, symObjAddr: 0x304C, symBinAddr: 0x100004FFC, symSize: 0x34 }
  - { offsetInCU: 0x106BA, offset: 0x106BA, size: 0x8, addend: 0x0, symName: __ZNSt3__16vectorI6KostkaNS_9allocatorIS1_EEE26__swap_out_circular_bufferERNS_14__split_bufferIS1_RS3_EE, symObjAddr: 0x2908, symBinAddr: 0x1000048B8, symSize: 0x118 }
  - { offsetInCU: 0x12B89, offset: 0x12B89, size: 0x8, addend: 0x0, symName: __Z16znajdzChodnikDFSv, symObjAddr: 0x0, symBinAddr: 0x100001FB0, symSize: 0xC }
  - { offsetInCU: 0x12BA7, offset: 0x12BA7, size: 0x8, addend: 0x0, symName: _main, symObjAddr: 0xC, symBinAddr: 0x100001FBC, symSize: 0x810 }
  - { offsetInCU: 0x12DCA, offset: 0x12DCA, size: 0x8, addend: 0x0, symName: __ZNSt3__19basic_iosIcNS_11char_traitsIcEEE3tieB7v160006EPNS_13basic_ostreamIcS2_EE, symObjAddr: 0x81C, symBinAddr: 0x1000027CC, symSize: 0x2C }
  - { offsetInCU: 0x12E10, offset: 0x12E10, size: 0x8, addend: 0x0, symName: __ZNSt3__16vectorI6KostkaNS_9allocatorIS1_EEEC1B7v160006Ev, symObjAddr: 0x848, symBinAddr: 0x1000027F8, symSize: 0x2C }
  - { offsetInCU: 0x12E3A, offset: 0x12E3A, size: 0x8, addend: 0x0, symName: __ZNSt3__16vectorI6KostkaNS_9allocatorIS1_EEE9push_backB7v160006ERKS1_, symObjAddr: 0x874, symBinAddr: 0x100002824, symSize: 0x6C }
  - { offsetInCU: 0x12E71, offset: 0x12E71, size: 0x8, addend: 0x0, symName: __ZNSt3__113unordered_mapIiNS_6vectorI6KostkaNS_9allocatorIS2_EEEENS_4hashIiEENS_8equal_toIiEENS3_INS_4pairIKiS5_EEEEEC1B7v160006Ev, symObjAddr: 0x8E0, symBinAddr: 0x100002890, symSize: 0x2C }
  - { offsetInCU: 0x12E9B, offset: 0x12E9B, size: 0x8, addend: 0x0, symName: __ZNSt3__16vectorI6KostkaNS_9allocatorIS1_EEE5beginB7v160006Ev, symObjAddr: 0x90C, symBinAddr: 0x1000028BC, symSize: 0x30 }
  - { offsetInCU: 0x12EC3, offset: 0x12EC3, size: 0x8, addend: 0x0, symName: __ZNSt3__16vectorI6KostkaNS_9allocatorIS1_EEE3endB7v160006Ev, symObjAddr: 0x93C, symBinAddr: 0x1000028EC, symSize: 0x30 }
  - { offsetInCU: 0x12EEB, offset: 0x12EEB, size: 0x8, addend: 0x0, symName: __ZNKSt3__111__wrap_iterIP6KostkaEdeB7v160006Ev, symObjAddr: 0x9A0, symBinAddr: 0x100002950, symSize: 0x18 }
  - { offsetInCU: 0x12F11, offset: 0x12F11, size: 0x8, addend: 0x0, symName: __ZNSt3__113unordered_mapIiNS_6vectorI6KostkaNS_9allocatorIS2_EEEENS_4hashIiEENS_8equal_toIiEENS3_INS_4pairIKiS5_EEEEEixERSB_, symObjAddr: 0x9B8, symBinAddr: 0x100002968, symSize: 0x128 }
  - { offsetInCU: 0x12F76, offset: 0x12F76, size: 0x8, addend: 0x0, symName: __ZNSt3__111__wrap_iterIP6KostkaEppB7v160006Ev, symObjAddr: 0xAE0, symBinAddr: 0x100002A90, symSize: 0x20 }
  - { offsetInCU: 0x12FC9, offset: 0x12FC9, size: 0x8, addend: 0x0, symName: __ZNSt3__15stackI5StateNS_5dequeIS1_NS_9allocatorIS1_EEEEEC1B7v160006Ev, symObjAddr: 0xB00, symBinAddr: 0x100002AB0, symSize: 0x2C }
  - { offsetInCU: 0x12FF3, offset: 0x12FF3, size: 0x8, addend: 0x0, symName: __ZNSt3__113unordered_mapIiNS_6vectorI6KostkaNS_9allocatorIS2_EEEENS_4hashIiEENS_8equal_toIiEENS3_INS_4pairIKiS5_EEEEEC1ERKSE_, symObjAddr: 0xB2C, symBinAddr: 0x100002ADC, symSize: 0x34 }
  - { offsetInCU: 0x1302E, offset: 0x1302E, size: 0x8, addend: 0x0, symName: __ZNSt3__16vectorI6KostkaNS_9allocatorIS1_EEED1B7v160006Ev, symObjAddr: 0xB60, symBinAddr: 0x100002B10, symSize: 0x2C }
  - { offsetInCU: 0x13058, offset: 0x13058, size: 0x8, addend: 0x0, symName: __ZNSt3__15stackI5StateNS_5dequeIS1_NS_9allocatorIS1_EEEEE4pushB7v160006ERKS1_, symObjAddr: 0xB98, symBinAddr: 0x100002B48, symSize: 0x2C }
  - { offsetInCU: 0x1308C, offset: 0x1308C, size: 0x8, addend: 0x0, symName: __ZNKSt3__15stackI5StateNS_5dequeIS1_NS_9allocatorIS1_EEEEE5emptyB7v160006Ev, symObjAddr: 0xBC4, symBinAddr: 0x100002B74, symSize: 0x28 }
  - { offsetInCU: 0x130B2, offset: 0x130B2, size: 0x8, addend: 0x0, symName: __ZNSt3__15stackI5StateNS_5dequeIS1_NS_9allocatorIS1_EEEEE3topB7v160006Ev, symObjAddr: 0xBEC, symBinAddr: 0x100002B9C, symSize: 0x24 }
  - { offsetInCU: 0x130DD, offset: 0x130DD, size: 0x8, addend: 0x0, symName: __ZN5StateC1ERKS_, symObjAddr: 0xC10, symBinAddr: 0x100002BC0, symSize: 0x34 }
  - { offsetInCU: 0x13112, offset: 0x13112, size: 0x8, addend: 0x0, symName: __ZNSt3__15stackI5StateNS_5dequeIS1_NS_9allocatorIS1_EEEEE3popB7v160006Ev, symObjAddr: 0xC44, symBinAddr: 0x100002BF4, symSize: 0x24 }
  - { offsetInCU: 0x13138, offset: 0x13138, size: 0x8, addend: 0x0, symName: __ZNKSt3__16vectorI6KostkaNS_9allocatorIS1_EEE5emptyB7v160006Ev, symObjAddr: 0xC68, symBinAddr: 0x100002C18, symSize: 0x28 }
  - { offsetInCU: 0x1315E, offset: 0x1315E, size: 0x8, addend: 0x0, symName: __ZNSt3__16vectorI6KostkaNS_9allocatorIS1_EEEaSB7v160006ERKS4_, symObjAddr: 0xC90, symBinAddr: 0x100002C40, symSize: 0x68 }
  - { offsetInCU: 0x13195, offset: 0x13195, size: 0x8, addend: 0x0, symName: __ZNSt3__113unordered_mapIiNS_6vectorI6KostkaNS_9allocatorIS2_EEEENS_4hashIiEENS_8equal_toIiEENS3_INS_4pairIKiS5_EEEEE4findB7v160006ERSB_, symObjAddr: 0xD28, symBinAddr: 0x100002CD8, symSize: 0x40 }
  - { offsetInCU: 0x131CA, offset: 0x131CA, size: 0x8, addend: 0x0, symName: __ZNSt3__113unordered_mapIiNS_6vectorI6KostkaNS_9allocatorIS2_EEEENS_4hashIiEENS_8equal_toIiEENS3_INS_4pairIKiS5_EEEEE3endB7v160006Ev, symObjAddr: 0xD68, symBinAddr: 0x100002D18, symSize: 0x38 }
  - { offsetInCU: 0x131F0, offset: 0x131F0, size: 0x8, addend: 0x0, symName: __ZNSt3__16vectorI6KostkaNS_9allocatorIS1_EEEC1ERKS4_, symObjAddr: 0xDA0, symBinAddr: 0x100002D50, symSize: 0x34 }
  - { offsetInCU: 0x1322B, offset: 0x1322B, size: 0x8, addend: 0x0, symName: __ZNKSt3__16vectorI6KostkaNS_9allocatorIS1_EEE4sizeB7v160006Ev, symObjAddr: 0xDD4, symBinAddr: 0x100002D84, symSize: 0x28 }
  - { offsetInCU: 0x13251, offset: 0x13251, size: 0x8, addend: 0x0, symName: __ZNSt3__16vectorI6KostkaNS_9allocatorIS1_EEEixB7v160006Em, symObjAddr: 0xDFC, symBinAddr: 0x100002DAC, symSize: 0x2C }
  - { offsetInCU: 0x13288, offset: 0x13288, size: 0x8, addend: 0x0, symName: __ZNSt3__16vectorI6KostkaNS_9allocatorIS1_EEE5eraseB7v160006ENS_11__wrap_iterIPKS1_EE, symObjAddr: 0xE28, symBinAddr: 0x100002DD8, symSize: 0xBC }
  - { offsetInCU: 0x132DD, offset: 0x132DD, size: 0x8, addend: 0x0, symName: __ZNKSt3__111__wrap_iterIP6KostkaEplB7v160006El, symObjAddr: 0xEE4, symBinAddr: 0x100002E94, symSize: 0x3C }
  - { offsetInCU: 0x13329, offset: 0x13329, size: 0x8, addend: 0x0, symName: __ZNSt3__111__wrap_iterIPK6KostkaEC1B7v160006IPS1_EERKNS0_IT_EEPNS_9enable_ifIXsr14is_convertibleIS7_S3_EE5valueEvE4typeE, symObjAddr: 0xF20, symBinAddr: 0x100002ED0, symSize: 0x3C }
  - { offsetInCU: 0x13374, offset: 0x13374, size: 0x8, addend: 0x0, symName: __ZN5StateD1Ev, symObjAddr: 0xF5C, symBinAddr: 0x100002F0C, symSize: 0x2C }
  - { offsetInCU: 0x133A0, offset: 0x133A0, size: 0x8, addend: 0x0, symName: __ZNSt3__113unordered_mapIiNS_6vectorI6KostkaNS_9allocatorIS2_EEEENS_4hashIiEENS_8equal_toIiEENS3_INS_4pairIKiS5_EEEEED1B7v160006Ev, symObjAddr: 0xF88, symBinAddr: 0x100002F38, symSize: 0x2C }
  - { offsetInCU: 0x133CA, offset: 0x133CA, size: 0x8, addend: 0x0, symName: __ZNSt3__113basic_ostreamIcNS_11char_traitsIcEEElsB7v160006EPFRS3_S4_E, symObjAddr: 0xFB4, symBinAddr: 0x100002F64, symSize: 0x2C }
  - { offsetInCU: 0x133FE, offset: 0x133FE, size: 0x8, addend: 0x0, symName: __ZNSt3__15stackI5StateNS_5dequeIS1_NS_9allocatorIS1_EEEEED1Ev, symObjAddr: 0x1080, symBinAddr: 0x100003030, symSize: 0x2C }
  - { offsetInCU: 0x1342A, offset: 0x1342A, size: 0x8, addend: 0x0, symName: __ZN5StateC2ERKS_, symObjAddr: 0x10AC, symBinAddr: 0x10000305C, symSize: 0x90 }
  - { offsetInCU: 0x1345F, offset: 0x1345F, size: 0x8, addend: 0x0, symName: __ZN5StateD2Ev, symObjAddr: 0x113C, symBinAddr: 0x1000030EC, symSize: 0x6C }
  - { offsetInCU: 0x1348B, offset: 0x1348B, size: 0x8, addend: 0x0, symName: __ZNSt3__15stackI5StateNS_5dequeIS1_NS_9allocatorIS1_EEEEED2Ev, symObjAddr: 0x11A8, symBinAddr: 0x100003158, symSize: 0x2C }
  - { offsetInCU: 0x134B7, offset: 0x134B7, size: 0x8, addend: 0x0, symName: __ZNSt3__15dequeI5StateNS_9allocatorIS1_EEED1B7v160006Ev, symObjAddr: 0x11D4, symBinAddr: 0x100003184, symSize: 0x2C }
  - { offsetInCU: 0x134E1, offset: 0x134E1, size: 0x8, addend: 0x0, symName: __ZNSt3__15dequeI5StateNS_9allocatorIS1_EEED2B7v160006Ev, symObjAddr: 0x1200, symBinAddr: 0x1000031B0, symSize: 0x9C }
  - { offsetInCU: 0x13538, offset: 0x13538, size: 0x8, addend: 0x0, symName: __ZNSt3__15dequeI5StateNS_9allocatorIS1_EEE5clearEv, symObjAddr: 0x129C, symBinAddr: 0x10000324C, symSize: 0x194 }
  - { offsetInCU: 0x1359C, offset: 0x1359C, size: 0x8, addend: 0x0, symName: __ZNSt3__114__split_bufferIP5StateNS_9allocatorIS2_EEE5beginB7v160006Ev, symObjAddr: 0x1430, symBinAddr: 0x1000033E0, symSize: 0x18 }
  - { offsetInCU: 0x135C2, offset: 0x135C2, size: 0x8, addend: 0x0, symName: __ZNSt3__114__split_bufferIP5StateNS_9allocatorIS2_EEE3endB7v160006Ev, symObjAddr: 0x1448, symBinAddr: 0x1000033F8, symSize: 0x18 }
  - { offsetInCU: 0x135E8, offset: 0x135E8, size: 0x8, addend: 0x0, symName: __ZNSt3__116allocator_traitsINS_9allocatorI5StateEEE10deallocateB7v160006ERS3_PS2_m, symObjAddr: 0x1460, symBinAddr: 0x100003410, symSize: 0x34 }
  - { offsetInCU: 0x1362A, offset: 0x1362A, size: 0x8, addend: 0x0, symName: __ZNSt3__15dequeI5StateNS_9allocatorIS1_EEE7__allocB7v160006Ev, symObjAddr: 0x1494, symBinAddr: 0x100003444, symSize: 0x28 }
  - { offsetInCU: 0x13650, offset: 0x13650, size: 0x8, addend: 0x0, symName: __ZNSt3__114__split_bufferIP5StateNS_9allocatorIS2_EEED1Ev, symObjAddr: 0x14BC, symBinAddr: 0x10000346C, symSize: 0x2C }
  - { offsetInCU: 0x1367C, offset: 0x1367C, size: 0x8, addend: 0x0, symName: __ZNSt3__15dequeI5StateNS_9allocatorIS1_EEE5beginB7v160006Ev, symObjAddr: 0x14E8, symBinAddr: 0x100003498, symSize: 0xD4 }
  - { offsetInCU: 0x136B1, offset: 0x136B1, size: 0x8, addend: 0x0, symName: __ZNSt3__15dequeI5StateNS_9allocatorIS1_EEE3endB7v160006Ev, symObjAddr: 0x15BC, symBinAddr: 0x10000356C, symSize: 0xC4 }
  - { offsetInCU: 0x136F5, offset: 0x136F5, size: 0x8, addend: 0x0, symName: __ZNSt3__116allocator_traitsINS_9allocatorI5StateEEE7destroyB7v160006IS2_vEEvRS3_PT_, symObjAddr: 0x16B4, symBinAddr: 0x100003664, symSize: 0x2C }
  - { offsetInCU: 0x13732, offset: 0x13732, size: 0x8, addend: 0x0, symName: __ZNKSt3__116__deque_iteratorI5StatePS1_RS1_PS2_lLl56EEdeB7v160006Ev, symObjAddr: 0x16E0, symBinAddr: 0x100003690, symSize: 0x18 }
  - { offsetInCU: 0x13758, offset: 0x13758, size: 0x8, addend: 0x0, symName: __ZNSt3__116__deque_iteratorI5StatePS1_RS1_PS2_lLl56EEppB7v160006Ev, symObjAddr: 0x16F8, symBinAddr: 0x1000036A8, symSize: 0x70 }
  - { offsetInCU: 0x1377E, offset: 0x1377E, size: 0x8, addend: 0x0, symName: __ZNSt3__15dequeI5StateNS_9allocatorIS1_EEE6__sizeB7v160006Ev, symObjAddr: 0x1768, symBinAddr: 0x100003718, symSize: 0x28 }
  - { offsetInCU: 0x137A4, offset: 0x137A4, size: 0x8, addend: 0x0, symName: __ZNKSt3__114__split_bufferIP5StateNS_9allocatorIS2_EEE4sizeB7v160006Ev, symObjAddr: 0x1790, symBinAddr: 0x100003740, symSize: 0x28 }
  - { offsetInCU: 0x137CA, offset: 0x137CA, size: 0x8, addend: 0x0, symName: __ZNSt3__114__split_bufferIP5StateNS_9allocatorIS2_EEE5frontB7v160006Ev, symObjAddr: 0x17B8, symBinAddr: 0x100003768, symSize: 0x18 }
  - { offsetInCU: 0x137F0, offset: 0x137F0, size: 0x8, addend: 0x0, symName: __ZNSt3__114__split_bufferIP5StateNS_9allocatorIS2_EEE9pop_frontB7v160006Ev, symObjAddr: 0x17D0, symBinAddr: 0x100003780, symSize: 0x2C }
  - { offsetInCU: 0x13816, offset: 0x13816, size: 0x8, addend: 0x0, symName: __ZNKSt3__114__split_bufferIP5StateNS_9allocatorIS2_EEE5emptyB7v160006Ev, symObjAddr: 0x17FC, symBinAddr: 0x1000037AC, symSize: 0x28 }
  - { offsetInCU: 0x1383C, offset: 0x1383C, size: 0x8, addend: 0x0, symName: __ZNSt3__116__deque_iteratorI5StatePS1_RS1_PS2_lLl56EEC1B7v160006ES4_S2_, symObjAddr: 0x1824, symBinAddr: 0x1000037D4, symSize: 0x3C }
  - { offsetInCU: 0x13884, offset: 0x13884, size: 0x8, addend: 0x0, symName: __ZNSt3__116__deque_iteratorI5StatePS1_RS1_PS2_lLl56EEC2B7v160006ES4_S2_, symObjAddr: 0x1860, symBinAddr: 0x100003810, symSize: 0x2C }
  - { offsetInCU: 0x138CC, offset: 0x138CC, size: 0x8, addend: 0x0, symName: __ZNKSt3__15dequeI5StateNS_9allocatorIS1_EEE4sizeB7v160006Ev, symObjAddr: 0x188C, symBinAddr: 0x10000383C, symSize: 0x28 }
  - { offsetInCU: 0x138F2, offset: 0x138F2, size: 0x8, addend: 0x0, symName: __ZNKSt3__15dequeI5StateNS_9allocatorIS1_EEE6__sizeB7v160006Ev, symObjAddr: 0x18B4, symBinAddr: 0x100003864, symSize: 0x28 }
  - { offsetInCU: 0x13918, offset: 0x13918, size: 0x8, addend: 0x0, symName: __ZNKSt3__117__compressed_pairImNS_9allocatorI5StateEEE5firstB7v160006Ev, symObjAddr: 0x18DC, symBinAddr: 0x10000388C, symSize: 0x24 }
  - { offsetInCU: 0x1393E, offset: 0x1393E, size: 0x8, addend: 0x0, symName: __ZNKSt3__122__compressed_pair_elemImLi0ELb0EE5__getB7v160006Ev, symObjAddr: 0x1900, symBinAddr: 0x1000038B0, symSize: 0x14 }
  - { offsetInCU: 0x13964, offset: 0x13964, size: 0x8, addend: 0x0, symName: __ZNSt3__19allocatorI5StateE7destroyB7v160006EPS1_, symObjAddr: 0x1944, symBinAddr: 0x1000038F4, symSize: 0x28 }
  - { offsetInCU: 0x13998, offset: 0x13998, size: 0x8, addend: 0x0, symName: __ZNSt3__117__compressed_pairImNS_9allocatorI5StateEEE5firstB7v160006Ev, symObjAddr: 0x196C, symBinAddr: 0x10000391C, symSize: 0x24 }
  - { offsetInCU: 0x139BE, offset: 0x139BE, size: 0x8, addend: 0x0, symName: __ZNSt3__122__compressed_pair_elemImLi0ELb0EE5__getB7v160006Ev, symObjAddr: 0x1990, symBinAddr: 0x100003940, symSize: 0x14 }
  - { offsetInCU: 0x139E4, offset: 0x139E4, size: 0x8, addend: 0x0, symName: __ZNSt3__114__split_bufferIP5StateNS_9allocatorIS2_EEE19__destruct_at_beginB7v160006EPS2_, symObjAddr: 0x19A4, symBinAddr: 0x100003954, symSize: 0x2C }
  - { offsetInCU: 0x13A18, offset: 0x13A18, size: 0x8, addend: 0x0, symName: __ZNSt3__114__split_bufferIP5StateNS_9allocatorIS2_EEE19__destruct_at_beginEPS2_NS_17integral_constantIbLb1EEE, symObjAddr: 0x19D0, symBinAddr: 0x100003980, symSize: 0x20 }
  - { offsetInCU: 0x13A58, offset: 0x13A58, size: 0x8, addend: 0x0, symName: __ZNSt3__19allocatorI5StateE10deallocateB7v160006EPS1_m, symObjAddr: 0x19F0, symBinAddr: 0x1000039A0, symSize: 0x74 }
  - { offsetInCU: 0x13A9A, offset: 0x13A9A, size: 0x8, addend: 0x0, symName: __ZNSt3__117__compressed_pairImNS_9allocatorI5StateEEE6secondB7v160006Ev, symObjAddr: 0x1AEC, symBinAddr: 0x100003A9C, symSize: 0x24 }
  - { offsetInCU: 0x13AC0, offset: 0x13AC0, size: 0x8, addend: 0x0, symName: __ZNSt3__122__compressed_pair_elemINS_9allocatorI5StateEELi1ELb1EE5__getB7v160006Ev, symObjAddr: 0x1B10, symBinAddr: 0x100003AC0, symSize: 0x14 }
  - { offsetInCU: 0x13AE6, offset: 0x13AE6, size: 0x8, addend: 0x0, symName: __ZNSt3__114__split_bufferIP5StateNS_9allocatorIS2_EEED2Ev, symObjAddr: 0x1B24, symBinAddr: 0x100003AD4, symSize: 0x80 }
  - { offsetInCU: 0x13B12, offset: 0x13B12, size: 0x8, addend: 0x0, symName: __ZNSt3__114__split_bufferIP5StateNS_9allocatorIS2_EEE5clearB7v160006Ev, symObjAddr: 0x1BA4, symBinAddr: 0x100003B54, symSize: 0x28 }
  - { offsetInCU: 0x13B38, offset: 0x13B38, size: 0x8, addend: 0x0, symName: __ZNSt3__116allocator_traitsINS_9allocatorIP5StateEEE10deallocateB7v160006ERS4_PS3_m, symObjAddr: 0x1BCC, symBinAddr: 0x100003B7C, symSize: 0x34 }
  - { offsetInCU: 0x13B7A, offset: 0x13B7A, size: 0x8, addend: 0x0, symName: __ZNSt3__114__split_bufferIP5StateNS_9allocatorIS2_EEE7__allocB7v160006Ev, symObjAddr: 0x1C00, symBinAddr: 0x100003BB0, symSize: 0x28 }
  - { offsetInCU: 0x13BA0, offset: 0x13BA0, size: 0x8, addend: 0x0, symName: __ZNKSt3__114__split_bufferIP5StateNS_9allocatorIS2_EEE8capacityB7v160006Ev, symObjAddr: 0x1C28, symBinAddr: 0x100003BD8, symSize: 0x40 }
  - { offsetInCU: 0x13BC6, offset: 0x13BC6, size: 0x8, addend: 0x0, symName: __ZNSt3__114__split_bufferIP5StateNS_9allocatorIS2_EEE17__destruct_at_endB7v160006EPS2_, symObjAddr: 0x1C68, symBinAddr: 0x100003C18, symSize: 0x2C }
  - { offsetInCU: 0x13BFA, offset: 0x13BFA, size: 0x8, addend: 0x0, symName: __ZNSt3__114__split_bufferIP5StateNS_9allocatorIS2_EEE17__destruct_at_endB7v160006EPS2_NS_17integral_constantIbLb0EEE, symObjAddr: 0x1C94, symBinAddr: 0x100003C44, symSize: 0x94 }
  - { offsetInCU: 0x13C3A, offset: 0x13C3A, size: 0x8, addend: 0x0, symName: __ZNSt3__116allocator_traitsINS_9allocatorIP5StateEEE7destroyB7v160006IS3_vEEvRS4_PT_, symObjAddr: 0x1D28, symBinAddr: 0x100003CD8, symSize: 0x2C }
  - { offsetInCU: 0x13C77, offset: 0x13C77, size: 0x8, addend: 0x0, symName: __ZNSt3__19allocatorIP5StateE7destroyB7v160006EPS2_, symObjAddr: 0x1D68, symBinAddr: 0x100003D18, symSize: 0x14 }
  - { offsetInCU: 0x13CAB, offset: 0x13CAB, size: 0x8, addend: 0x0, symName: __ZNSt3__19allocatorIP5StateE10deallocateB7v160006EPS2_m, symObjAddr: 0x1D7C, symBinAddr: 0x100003D2C, symSize: 0x70 }
  - { offsetInCU: 0x13CED, offset: 0x13CED, size: 0x8, addend: 0x0, symName: __ZNSt3__117__compressed_pairIPP5StateNS_9allocatorIS2_EEE6secondB7v160006Ev, symObjAddr: 0x1DEC, symBinAddr: 0x100003D9C, symSize: 0x24 }
  - { offsetInCU: 0x13D13, offset: 0x13D13, size: 0x8, addend: 0x0, symName: __ZNSt3__122__compressed_pair_elemINS_9allocatorIP5StateEELi1ELb1EE5__getB7v160006Ev, symObjAddr: 0x1E10, symBinAddr: 0x100003DC0, symSize: 0x14 }
  - { offsetInCU: 0x13D39, offset: 0x13D39, size: 0x8, addend: 0x0, symName: __ZNKSt3__114__split_bufferIP5StateNS_9allocatorIS2_EEE9__end_capB7v160006Ev, symObjAddr: 0x1E24, symBinAddr: 0x100003DD4, symSize: 0x28 }
  - { offsetInCU: 0x13D5F, offset: 0x13D5F, size: 0x8, addend: 0x0, symName: __ZNKSt3__117__compressed_pairIPP5StateNS_9allocatorIS2_EEE5firstB7v160006Ev, symObjAddr: 0x1E4C, symBinAddr: 0x100003DFC, symSize: 0x24 }
  - { offsetInCU: 0x13D85, offset: 0x13D85, size: 0x8, addend: 0x0, symName: __ZNKSt3__122__compressed_pair_elemIPP5StateLi0ELb0EE5__getB7v160006Ev, symObjAddr: 0x1E70, symBinAddr: 0x100003E20, symSize: 0x14 }
  - { offsetInCU: 0x13DAB, offset: 0x13DAB, size: 0x8, addend: 0x0, symName: __ZNSt3__16vectorI6KostkaNS_9allocatorIS1_EEEC2B7v160006Ev, symObjAddr: 0x1E84, symBinAddr: 0x100003E34, symSize: 0x4C }
  - { offsetInCU: 0x13DE1, offset: 0x13DE1, size: 0x8, addend: 0x0, symName: __ZNSt3__117__compressed_pairIP6KostkaNS_9allocatorIS1_EEEC1B7v160006IDnNS_18__default_init_tagEEEOT_OT0_, symObjAddr: 0x1ED0, symBinAddr: 0x100003E80, symSize: 0x3C }
  - { offsetInCU: 0x13E39, offset: 0x13E39, size: 0x8, addend: 0x0, symName: __ZNSt3__117__compressed_pairIP6KostkaNS_9allocatorIS1_EEEC2B7v160006IDnNS_18__default_init_tagEEEOT_OT0_, symObjAddr: 0x1F1C, symBinAddr: 0x100003ECC, symSize: 0x40 }
  - { offsetInCU: 0x13E91, offset: 0x13E91, size: 0x8, addend: 0x0, symName: __ZNSt3__122__compressed_pair_elemIP6KostkaLi0ELb0EEC2B7v160006IDnvEEOT_, symObjAddr: 0x1F5C, symBinAddr: 0x100003F0C, symSize: 0x1C }
  - { offsetInCU: 0x13ED3, offset: 0x13ED3, size: 0x8, addend: 0x0, symName: __ZNSt3__122__compressed_pair_elemINS_9allocatorI6KostkaEELi1ELb1EEC2B7v160006ENS_18__default_init_tagE, symObjAddr: 0x1F78, symBinAddr: 0x100003F28, symSize: 0x2C }
  - { offsetInCU: 0x13F07, offset: 0x13F07, size: 0x8, addend: 0x0, symName: __ZNSt3__19allocatorI6KostkaEC2B7v160006Ev, symObjAddr: 0x1FA4, symBinAddr: 0x100003F54, symSize: 0x2C }
  - { offsetInCU: 0x13F31, offset: 0x13F31, size: 0x8, addend: 0x0, symName: __ZNSt3__116__non_trivial_ifILb1ENS_9allocatorI6KostkaEEEC2B7v160006Ev, symObjAddr: 0x1FD0, symBinAddr: 0x100003F80, symSize: 0x14 }
  - { offsetInCU: 0x13F5B, offset: 0x13F5B, size: 0x8, addend: 0x0, symName: __ZNSt3__16vectorI6KostkaNS_9allocatorIS1_EEED2B7v160006Ev, symObjAddr: 0x1FE4, symBinAddr: 0x100003F94, symSize: 0x3C }
  - { offsetInCU: 0x13F85, offset: 0x13F85, size: 0x8, addend: 0x0, symName: __ZNSt3__16vectorI6KostkaNS_9allocatorIS1_EEE16__destroy_vectorC1ERS4_, symObjAddr: 0x2020, symBinAddr: 0x100003FD0, symSize: 0x34 }
  - { offsetInCU: 0x13FBE, offset: 0x13FBE, size: 0x8, addend: 0x0, symName: __ZNSt3__16vectorI6KostkaNS_9allocatorIS1_EEE16__destroy_vectorclB7v160006Ev, symObjAddr: 0x2054, symBinAddr: 0x100004004, symSize: 0x9C }
  - { offsetInCU: 0x13FE4, offset: 0x13FE4, size: 0x8, addend: 0x0, symName: __ZNSt3__16vectorI6KostkaNS_9allocatorIS1_EEE16__destroy_vectorC2ERS4_, symObjAddr: 0x20F0, symBinAddr: 0x1000040A0, symSize: 0x20 }
  - { offsetInCU: 0x1401D, offset: 0x1401D, size: 0x8, addend: 0x0, symName: __ZNKSt3__16vectorI6KostkaNS_9allocatorIS1_EEE17__annotate_deleteB7v160006Ev, symObjAddr: 0x2110, symBinAddr: 0x1000040C0, symSize: 0xD4 }
  - { offsetInCU: 0x14043, offset: 0x14043, size: 0x8, addend: 0x0, symName: __ZNSt3__16vectorI6KostkaNS_9allocatorIS1_EEE7__clearB7v160006Ev, symObjAddr: 0x21F4, symBinAddr: 0x1000041A4, symSize: 0x28 }
  - { offsetInCU: 0x14069, offset: 0x14069, size: 0x8, addend: 0x0, symName: __ZNSt3__116allocator_traitsINS_9allocatorI6KostkaEEE10deallocateB7v160006ERS3_PS2_m, symObjAddr: 0x221C, symBinAddr: 0x1000041CC, symSize: 0x34 }
  - { offsetInCU: 0x140AB, offset: 0x140AB, size: 0x8, addend: 0x0, symName: __ZNSt3__16vectorI6KostkaNS_9allocatorIS1_EEE7__allocB7v160006Ev, symObjAddr: 0x2250, symBinAddr: 0x100004200, symSize: 0x28 }
  - { offsetInCU: 0x140D1, offset: 0x140D1, size: 0x8, addend: 0x0, symName: __ZNKSt3__16vectorI6KostkaNS_9allocatorIS1_EEE8capacityB7v160006Ev, symObjAddr: 0x2278, symBinAddr: 0x100004228, symSize: 0x40 }
  - { offsetInCU: 0x140F7, offset: 0x140F7, size: 0x8, addend: 0x0, symName: __ZNKSt3__16vectorI6KostkaNS_9allocatorIS1_EEE31__annotate_contiguous_containerB7v160006EPKvS6_S6_S6_, symObjAddr: 0x22B8, symBinAddr: 0x100004268, symSize: 0x20 }
  - { offsetInCU: 0x14149, offset: 0x14149, size: 0x8, addend: 0x0, symName: __ZNKSt3__16vectorI6KostkaNS_9allocatorIS1_EEE4dataB7v160006Ev, symObjAddr: 0x22D8, symBinAddr: 0x100004288, symSize: 0x28 }
  - { offsetInCU: 0x1416F, offset: 0x1416F, size: 0x8, addend: 0x0, symName: __ZNSt3__16vectorI6KostkaNS_9allocatorIS1_EEE22__base_destruct_at_endB7v160006EPS1_, symObjAddr: 0x2314, symBinAddr: 0x1000042C4, symSize: 0xA0 }
  - { offsetInCU: 0x141B3, offset: 0x141B3, size: 0x8, addend: 0x0, symName: __ZNSt3__116allocator_traitsINS_9allocatorI6KostkaEEE7destroyB7v160006IS2_vEEvRS3_PT_, symObjAddr: 0x23B4, symBinAddr: 0x100004364, symSize: 0x2C }
  - { offsetInCU: 0x141F0, offset: 0x141F0, size: 0x8, addend: 0x0, symName: __ZNSt3__19allocatorI6KostkaE7destroyB7v160006EPS1_, symObjAddr: 0x23E0, symBinAddr: 0x100004390, symSize: 0x14 }
  - { offsetInCU: 0x14224, offset: 0x14224, size: 0x8, addend: 0x0, symName: __ZNSt3__19allocatorI6KostkaE10deallocateB7v160006EPS1_m, symObjAddr: 0x23F4, symBinAddr: 0x1000043A4, symSize: 0x74 }
  - { offsetInCU: 0x14266, offset: 0x14266, size: 0x8, addend: 0x0, symName: __ZNSt3__117__compressed_pairIP6KostkaNS_9allocatorIS1_EEE6secondB7v160006Ev, symObjAddr: 0x2468, symBinAddr: 0x100004418, symSize: 0x24 }
  - { offsetInCU: 0x1428C, offset: 0x1428C, size: 0x8, addend: 0x0, symName: __ZNSt3__122__compressed_pair_elemINS_9allocatorI6KostkaEELi1ELb1EE5__getB7v160006Ev, symObjAddr: 0x248C, symBinAddr: 0x10000443C, symSize: 0x14 }
  - { offsetInCU: 0x142B2, offset: 0x142B2, size: 0x8, addend: 0x0, symName: __ZNKSt3__16vectorI6KostkaNS_9allocatorIS1_EEE9__end_capB7v160006Ev, symObjAddr: 0x24A0, symBinAddr: 0x100004450, symSize: 0x28 }
  - { offsetInCU: 0x142D8, offset: 0x142D8, size: 0x8, addend: 0x0, symName: __ZNKSt3__117__compressed_pairIP6KostkaNS_9allocatorIS1_EEE5firstB7v160006Ev, symObjAddr: 0x24C8, symBinAddr: 0x100004478, symSize: 0x24 }
  - { offsetInCU: 0x142FE, offset: 0x142FE, size: 0x8, addend: 0x0, symName: __ZNKSt3__122__compressed_pair_elemIP6KostkaLi0ELb0EE5__getB7v160006Ev, symObjAddr: 0x24EC, symBinAddr: 0x10000449C, symSize: 0x14 }
  - { offsetInCU: 0x14324, offset: 0x14324, size: 0x8, addend: 0x0, symName: __ZNSt3__16vectorI6KostkaNS_9allocatorIS1_EEE9__end_capB7v160006Ev, symObjAddr: 0x2500, symBinAddr: 0x1000044B0, symSize: 0x28 }
  - { offsetInCU: 0x1434A, offset: 0x1434A, size: 0x8, addend: 0x0, symName: __ZNSt3__16vectorI6KostkaNS_9allocatorIS1_EEE22__construct_one_at_endB7v160006IJRKS1_EEEvDpOT_, symObjAddr: 0x2528, symBinAddr: 0x1000044D8, symSize: 0x98 }
  - { offsetInCU: 0x14399, offset: 0x14399, size: 0x8, addend: 0x0, symName: __ZNSt3__16vectorI6KostkaNS_9allocatorIS1_EEE21__push_back_slow_pathIRKS1_EEvOT_, symObjAddr: 0x25C0, symBinAddr: 0x100004570, symSize: 0xE0 }
  - { offsetInCU: 0x143F7, offset: 0x143F7, size: 0x8, addend: 0x0, symName: __ZNSt3__117__compressed_pairIP6KostkaNS_9allocatorIS1_EEE5firstB7v160006Ev, symObjAddr: 0x26A0, symBinAddr: 0x100004650, symSize: 0x24 }
  - { offsetInCU: 0x1441D, offset: 0x1441D, size: 0x8, addend: 0x0, symName: __ZNSt3__122__compressed_pair_elemIP6KostkaLi0ELb0EE5__getB7v160006Ev, symObjAddr: 0x26C4, symBinAddr: 0x100004674, symSize: 0x14 }
  - { offsetInCU: 0x1445C, offset: 0x1445C, size: 0x8, addend: 0x0, symName: __ZNSt3__16vectorI6KostkaNS_9allocatorIS1_EEE21_ConstructTransactionC1B7v160006ERS4_m, symObjAddr: 0x26D8, symBinAddr: 0x100004688, symSize: 0x3C }
  - { offsetInCU: 0x144A4, offset: 0x144A4, size: 0x8, addend: 0x0, symName: __ZNSt3__116allocator_traitsINS_9allocatorI6KostkaEEE9constructB7v160006IS2_JRKS2_EvEEvRS3_PT_DpOT0_, symObjAddr: 0x2714, symBinAddr: 0x1000046C4, symSize: 0x34 }
  - { offsetInCU: 0x144FB, offset: 0x144FB, size: 0x8, addend: 0x0, symName: __ZNSt3__16vectorI6KostkaNS_9allocatorIS1_EEE21_ConstructTransactionD1B7v160006Ev, symObjAddr: 0x2748, symBinAddr: 0x1000046F8, symSize: 0x2C }
  - { offsetInCU: 0x14525, offset: 0x14525, size: 0x8, addend: 0x0, symName: __ZNSt3__16vectorI6KostkaNS_9allocatorIS1_EEE21_ConstructTransactionC2B7v160006ERS4_m, symObjAddr: 0x2774, symBinAddr: 0x100004724, symSize: 0x4C }
  - { offsetInCU: 0x1456D, offset: 0x1456D, size: 0x8, addend: 0x0, symName: __ZNSt3__19allocatorI6KostkaE9constructB7v160006IS1_JRKS1_EEEvPT_DpOT0_, symObjAddr: 0x27C0, symBinAddr: 0x100004770, symSize: 0x30 }
  - { offsetInCU: 0x145C3, offset: 0x145C3, size: 0x8, addend: 0x0, symName: __ZNSt3__16vectorI6KostkaNS_9allocatorIS1_EEE21_ConstructTransactionD2B7v160006Ev, symObjAddr: 0x27F0, symBinAddr: 0x1000047A0, symSize: 0x20 }
  - { offsetInCU: 0x145ED, offset: 0x145ED, size: 0x8, addend: 0x0, symName: __ZNKSt3__16vectorI6KostkaNS_9allocatorIS1_EEE11__recommendB7v160006Em, symObjAddr: 0x2810, symBinAddr: 0x1000047C0, symSize: 0xB4 }
  - { offsetInCU: 0x14642, offset: 0x14642, size: 0x8, addend: 0x0, symName: __ZNSt3__114__split_bufferI6KostkaRNS_9allocatorIS1_EEEC1EmmS4_, symObjAddr: 0x28C4, symBinAddr: 0x100004874, symSize: 0x44 }
  - { offsetInCU: 0x14698, offset: 0x14698, size: 0x8, addend: 0x0, symName: __ZNSt3__114__split_bufferI6KostkaRNS_9allocatorIS1_EEED1Ev, symObjAddr: 0x2A20, symBinAddr: 0x1000049D0, symSize: 0x2C }
  - { offsetInCU: 0x146C4, offset: 0x146C4, size: 0x8, addend: 0x0, symName: __ZNKSt3__16vectorI6KostkaNS_9allocatorIS1_EEE8max_sizeEv, symObjAddr: 0x2A4C, symBinAddr: 0x1000049FC, symSize: 0x74 }
  - { offsetInCU: 0x146EC, offset: 0x146EC, size: 0x8, addend: 0x0, symName: __ZNKSt3__16vectorI6KostkaNS_9allocatorIS1_EEE20__throw_length_errorB7v160006Ev, symObjAddr: 0x2AC0, symBinAddr: 0x100004A70, symSize: 0x1C }
  - { offsetInCU: 0x1471C, offset: 0x1471C, size: 0x8, addend: 0x0, symName: __ZNSt3__116allocator_traitsINS_9allocatorI6KostkaEEE8max_sizeB7v160006IS3_vEEmRKS3_, symObjAddr: 0x2B34, symBinAddr: 0x100004AE4, symSize: 0x24 }
  - { offsetInCU: 0x1474A, offset: 0x1474A, size: 0x8, addend: 0x0, symName: __ZNKSt3__16vectorI6KostkaNS_9allocatorIS1_EEE7__allocB7v160006Ev, symObjAddr: 0x2B58, symBinAddr: 0x100004B08, symSize: 0x28 }
  - { offsetInCU: 0x14770, offset: 0x14770, size: 0x8, addend: 0x0, symName: __ZNSt3__114numeric_limitsIlE3maxB7v160006Ev, symObjAddr: 0x2B80, symBinAddr: 0x100004B30, symSize: 0x14 }
  - { offsetInCU: 0x1478E, offset: 0x1478E, size: 0x8, addend: 0x0, symName: __ZNKSt3__16__lessImmEclB7v160006ERKmS3_, symObjAddr: 0x2BE8, symBinAddr: 0x100004B98, symSize: 0x34 }
  - { offsetInCU: 0x147D0, offset: 0x147D0, size: 0x8, addend: 0x0, symName: __ZNKSt3__19allocatorI6KostkaE8max_sizeB7v160006Ev, symObjAddr: 0x2C1C, symBinAddr: 0x100004BCC, symSize: 0x18 }
  - { offsetInCU: 0x147F6, offset: 0x147F6, size: 0x8, addend: 0x0, symName: __ZNKSt3__117__compressed_pairIP6KostkaNS_9allocatorIS1_EEE6secondB7v160006Ev, symObjAddr: 0x2C34, symBinAddr: 0x100004BE4, symSize: 0x24 }
  - { offsetInCU: 0x1481C, offset: 0x1481C, size: 0x8, addend: 0x0, symName: __ZNKSt3__122__compressed_pair_elemINS_9allocatorI6KostkaEELi1ELb1EE5__getB7v160006Ev, symObjAddr: 0x2C58, symBinAddr: 0x100004C08, symSize: 0x14 }
  - { offsetInCU: 0x14842, offset: 0x14842, size: 0x8, addend: 0x0, symName: __ZNSt3__123__libcpp_numeric_limitsIlLb1EE3maxB7v160006Ev, symObjAddr: 0x2C6C, symBinAddr: 0x100004C1C, symSize: 0x8 }
  - { offsetInCU: 0x14856, offset: 0x14856, size: 0x8, addend: 0x0, symName: __ZNSt12length_errorC1B7v160006EPKc, symObjAddr: 0x2CD8, symBinAddr: 0x100004C88, symSize: 0x34 }
  - { offsetInCU: 0x1488E, offset: 0x1488E, size: 0x8, addend: 0x0, symName: __ZNSt12length_errorC2B7v160006EPKc, symObjAddr: 0x2D0C, symBinAddr: 0x100004CBC, symSize: 0x4C }
  - { offsetInCU: 0x148C6, offset: 0x148C6, size: 0x8, addend: 0x0, symName: __ZNSt3__114__split_bufferI6KostkaRNS_9allocatorIS1_EEEC2EmmS4_, symObjAddr: 0x2DAC, symBinAddr: 0x100004D5C, symSize: 0xE0 }
  - { offsetInCU: 0x1493A, offset: 0x1493A, size: 0x8, addend: 0x0, symName: __ZNSt3__117__compressed_pairIP6KostkaRNS_9allocatorIS1_EEEC1B7v160006IDnS5_EEOT_OT0_, symObjAddr: 0x2E8C, symBinAddr: 0x100004E3C, symSize: 0x3C }
  - { offsetInCU: 0x14992, offset: 0x14992, size: 0x8, addend: 0x0, symName: __ZNSt3__114__split_bufferI6KostkaRNS_9allocatorIS1_EEE7__allocB7v160006Ev, symObjAddr: 0x2F08, symBinAddr: 0x100004EB8, symSize: 0x28 }
  - { offsetInCU: 0x149B8, offset: 0x149B8, size: 0x8, addend: 0x0, symName: __ZNSt3__114__split_bufferI6KostkaRNS_9allocatorIS1_EEE9__end_capB7v160006Ev, symObjAddr: 0x2F30, symBinAddr: 0x100004EE0, symSize: 0x28 }
  - { offsetInCU: 0x149DE, offset: 0x149DE, size: 0x8, addend: 0x0, symName: __ZNSt3__117__compressed_pairIP6KostkaRNS_9allocatorIS1_EEEC2B7v160006IDnS5_EEOT_OT0_, symObjAddr: 0x2F58, symBinAddr: 0x100004F08, symSize: 0x48 }
  - { offsetInCU: 0x14A36, offset: 0x14A36, size: 0x8, addend: 0x0, symName: __ZNSt3__122__compressed_pair_elemIRNS_9allocatorI6KostkaEELi1ELb0EEC2B7v160006IS4_vEEOT_, symObjAddr: 0x2FA0, symBinAddr: 0x100004F50, symSize: 0x20 }
  - { offsetInCU: 0x14A78, offset: 0x14A78, size: 0x8, addend: 0x0, symName: __ZNSt3__19allocatorI6KostkaE8allocateB7v160006Em, symObjAddr: 0x2FC0, symBinAddr: 0x100004F70, symSize: 0x8C }
  - { offsetInCU: 0x14AAC, offset: 0x14AAC, size: 0x8, addend: 0x0, symName: __ZNSt3__117__compressed_pairIP6KostkaRNS_9allocatorIS1_EEE6secondB7v160006Ev, symObjAddr: 0x30CC, symBinAddr: 0x10000507C, symSize: 0x28 }
  - { offsetInCU: 0x14AD2, offset: 0x14AD2, size: 0x8, addend: 0x0, symName: __ZNSt3__122__compressed_pair_elemIRNS_9allocatorI6KostkaEELi1ELb0EE5__getB7v160006Ev, symObjAddr: 0x30F4, symBinAddr: 0x1000050A4, symSize: 0x18 }
  - { offsetInCU: 0x14AF8, offset: 0x14AF8, size: 0x8, addend: 0x0, symName: __ZNSt3__117__compressed_pairIP6KostkaRNS_9allocatorIS1_EEE5firstB7v160006Ev, symObjAddr: 0x310C, symBinAddr: 0x1000050BC, symSize: 0x24 }
  - { offsetInCU: 0x14B1E, offset: 0x14B1E, size: 0x8, addend: 0x0, symName: __ZNSt3__116reverse_iteratorIP6KostkaEC1B7v160006ES2_, symObjAddr: 0x3218, symBinAddr: 0x1000051C8, symSize: 0x34 }
  - { offsetInCU: 0x14B56, offset: 0x14B56, size: 0x8, addend: 0x0, symName: __ZNKSt3__116reverse_iteratorIP6KostkaE4baseB7v160006Ev, symObjAddr: 0x324C, symBinAddr: 0x1000051FC, symSize: 0x18 }
  - { offsetInCU: 0x14B7C, offset: 0x14B7C, size: 0x8, addend: 0x0, symName: __ZNKSt3__16vectorI6KostkaNS_9allocatorIS1_EEE14__annotate_newB7v160006Em, symObjAddr: 0x32A0, symBinAddr: 0x100005250, symSize: 0xC8 }
  - { offsetInCU: 0x14BB1, offset: 0x14BB1, size: 0x8, addend: 0x0, symName: __ZNKSt3__116reverse_iteratorIP6KostkaEdeB7v160006Ev, symObjAddr: 0x3418, symBinAddr: 0x1000053C8, symSize: 0x28 }
  - { offsetInCU: 0x14BE5, offset: 0x14BE5, size: 0x8, addend: 0x0, symName: __ZNSt3__116reverse_iteratorIP6KostkaEppB7v160006Ev, symObjAddr: 0x3440, symBinAddr: 0x1000053F0, symSize: 0x20 }
  - { offsetInCU: 0x14C10, offset: 0x14C10, size: 0x8, addend: 0x0, symName: __ZNSt3__119__to_address_helperINS_16reverse_iteratorIP6KostkaEEvE6__callB7v160006ERKS4_, symObjAddr: 0x34D8, symBinAddr: 0x100005488, symSize: 0x4C }
  - { offsetInCU: 0x14C33, offset: 0x14C33, size: 0x8, addend: 0x0, symName: __ZNKSt3__116reverse_iteratorIP6KostkaEptB7v160006Ev, symObjAddr: 0x3524, symBinAddr: 0x1000054D4, symSize: 0x24 }
  - { offsetInCU: 0x14C7D, offset: 0x14C7D, size: 0x8, addend: 0x0, symName: __ZNKSt3__111__move_loopINS_17_ClassicAlgPolicyEEclB7v160006INS_16reverse_iteratorIP6KostkaEES7_S7_EENS_4pairIT_T1_EES9_T0_SA_, symObjAddr: 0x37D8, symBinAddr: 0x100005788, symSize: 0xA8 }
  - { offsetInCU: 0x14CEE, offset: 0x14CEE, size: 0x8, addend: 0x0, symName: __ZNSt3__18_IterOpsINS_17_ClassicAlgPolicyEE11__iter_moveB7v160006IRNS_16reverse_iteratorIP6KostkaEEEENS_9enable_ifIXsr12is_referenceIDTdeclsr3stdE7declvalIRT_EEEEE5valueEDTclsr3stdE4movedeclsr3stdE7declvalISB_EEEEE4typeEOSA_, symObjAddr: 0x39E0, symBinAddr: 0x100005990, symSize: 0x28 }
  - { offsetInCU: 0x14D1A, offset: 0x14D1A, size: 0x8, addend: 0x0, symName: __ZNSt3__18_IterOpsINS_17_ClassicAlgPolicyEE25__validate_iter_referenceB7v160006IRNS_16reverse_iteratorIP6KostkaEEEEvv, symObjAddr: 0x3A08, symBinAddr: 0x1000059B8, symSize: 0x4 }
  - { offsetInCU: 0x14D38, offset: 0x14D38, size: 0x8, addend: 0x0, symName: __ZNSt3__118__unwrap_iter_implINS_16reverse_iteratorIP6KostkaEELb0EE8__unwrapB7v160006ES4_, symObjAddr: 0x3A0C, symBinAddr: 0x1000059BC, symSize: 0x24 }
  - { offsetInCU: 0x14D5B, offset: 0x14D5B, size: 0x8, addend: 0x0, symName: __ZNSt3__14pairINS_16reverse_iteratorIP6KostkaEES4_EC1B7v160006ERKS4_S7_, symObjAddr: 0x3A30, symBinAddr: 0x1000059E0, symSize: 0x3C }
  - { offsetInCU: 0x14DA1, offset: 0x14DA1, size: 0x8, addend: 0x0, symName: __ZNSt3__14pairINS_16reverse_iteratorIP6KostkaEES4_EC2B7v160006ERKS4_S7_, symObjAddr: 0x3A6C, symBinAddr: 0x100005A1C, symSize: 0x34 }
  - { offsetInCU: 0x14DE7, offset: 0x14DE7, size: 0x8, addend: 0x0, symName: __ZNSt3__118__unwrap_iter_implINS_16reverse_iteratorIP6KostkaEELb0EE8__rewrapB7v160006ES4_S4_, symObjAddr: 0x3AA0, symBinAddr: 0x100005A50, symSize: 0x2C }
  - { offsetInCU: 0x14E14, offset: 0x14E14, size: 0x8, addend: 0x0, symName: __ZNSt3__116reverse_iteratorIP6KostkaEC2B7v160006ES2_, symObjAddr: 0x3ACC, symBinAddr: 0x100005A7C, symSize: 0x28 }
  - { offsetInCU: 0x14E4C, offset: 0x14E4C, size: 0x8, addend: 0x0, symName: __ZNSt3__114__split_bufferI6KostkaRNS_9allocatorIS1_EEED2Ev, symObjAddr: 0x3AF4, symBinAddr: 0x100005AA4, symSize: 0x80 }
  - { offsetInCU: 0x14E78, offset: 0x14E78, size: 0x8, addend: 0x0, symName: __ZNSt3__114__split_bufferI6KostkaRNS_9allocatorIS1_EEE5clearB7v160006Ev, symObjAddr: 0x3B74, symBinAddr: 0x100005B24, symSize: 0x28 }
  - { offsetInCU: 0x14E9E, offset: 0x14E9E, size: 0x8, addend: 0x0, symName: __ZNKSt3__114__split_bufferI6KostkaRNS_9allocatorIS1_EEE8capacityB7v160006Ev, symObjAddr: 0x3B9C, symBinAddr: 0x100005B4C, symSize: 0x40 }
  - { offsetInCU: 0x14EC4, offset: 0x14EC4, size: 0x8, addend: 0x0, symName: __ZNSt3__114__split_bufferI6KostkaRNS_9allocatorIS1_EEE17__destruct_at_endB7v160006EPS1_, symObjAddr: 0x3BDC, symBinAddr: 0x100005B8C, symSize: 0x2C }
  - { offsetInCU: 0x14EF8, offset: 0x14EF8, size: 0x8, addend: 0x0, symName: __ZNSt3__114__split_bufferI6KostkaRNS_9allocatorIS1_EEE17__destruct_at_endB7v160006EPS1_NS_17integral_constantIbLb0EEE, symObjAddr: 0x3C08, symBinAddr: 0x100005BB8, symSize: 0x94 }
  - { offsetInCU: 0x14F38, offset: 0x14F38, size: 0x8, addend: 0x0, symName: __ZNKSt3__114__split_bufferI6KostkaRNS_9allocatorIS1_EEE9__end_capB7v160006Ev, symObjAddr: 0x3C9C, symBinAddr: 0x100005C4C, symSize: 0x28 }
  - { offsetInCU: 0x14F5E, offset: 0x14F5E, size: 0x8, addend: 0x0, symName: __ZNKSt3__117__compressed_pairIP6KostkaRNS_9allocatorIS1_EEE5firstB7v160006Ev, symObjAddr: 0x3CC4, symBinAddr: 0x100005C74, symSize: 0x24 }
  - { offsetInCU: 0x14F84, offset: 0x14F84, size: 0x8, addend: 0x0, symName: __ZNSt3__113unordered_mapIiNS_6vectorI6KostkaNS_9allocatorIS2_EEEENS_4hashIiEENS_8equal_toIiEENS3_INS_4pairIKiS5_EEEEEC2B7v160006Ev, symObjAddr: 0x3CE8, symBinAddr: 0x100005C98, symSize: 0x64 }
  - { offsetInCU: 0x14FAE, offset: 0x14FAE, size: 0x8, addend: 0x0, symName: __ZNSt3__112__hash_tableINS_17__hash_value_typeIiNS_6vectorI6KostkaNS_9allocatorIS3_EEEEEENS_22__unordered_map_hasherIiS7_NS_4hashIiEENS_8equal_toIiEELb1EEENS_21__unordered_map_equalIiS7_SC_SA_Lb1EEENS4_IS7_EEEC1Ev, symObjAddr: 0x3D4C, symBinAddr: 0x100005CFC, symSize: 0x2C }
  - { offsetInCU: 0x14FDA, offset: 0x14FDA, size: 0x8, addend: 0x0, symName: __ZNSt3__112__hash_tableINS_17__hash_value_typeIiNS_6vectorI6KostkaNS_9allocatorIS3_EEEEEENS_22__unordered_map_hasherIiS7_NS_4hashIiEENS_8equal_toIiEELb1EEENS_21__unordered_map_equalIiS7_SC_SA_Lb1EEENS4_IS7_EEED1Ev, symObjAddr: 0x3D88, symBinAddr: 0x100005D38, symSize: 0x2C }
  - { offsetInCU: 0x15006, offset: 0x15006, size: 0x8, addend: 0x0, symName: __ZNSt3__112__hash_tableINS_17__hash_value_typeIiNS_6vectorI6KostkaNS_9allocatorIS3_EEEEEENS_22__unordered_map_hasherIiS7_NS_4hashIiEENS_8equal_toIiEELb1EEENS_21__unordered_map_equalIiS7_SC_SA_Lb1EEENS4_IS7_EEEC2Ev, symObjAddr: 0x3DB4, symBinAddr: 0x100005D64, symSize: 0xA4 }
  - { offsetInCU: 0x15032, offset: 0x15032, size: 0x8, addend: 0x0, symName: __ZNSt3__110unique_ptrIA_PNS_16__hash_node_baseIPNS_11__hash_nodeINS_17__hash_value_typeIiNS_6vectorI6KostkaNS_9allocatorIS5_EEEEEEPvEEEENS_25__bucket_list_deallocatorINS6_ISE_EEEEEC1B7v160006ILb1EvEEv, symObjAddr: 0x3E58, symBinAddr: 0x100005E08, symSize: 0x2C }
  - { offsetInCU: 0x15067, offset: 0x15067, size: 0x8, addend: 0x0, symName: __ZNSt3__117__compressed_pairINS_16__hash_node_baseIPNS_11__hash_nodeINS_17__hash_value_typeIiNS_6vectorI6KostkaNS_9allocatorIS5_EEEEEEPvEEEENS6_ISB_EEEC1B7v160006ILb1EvEEv, symObjAddr: 0x3E84, symBinAddr: 0x100005E34, symSize: 0x2C }
  - { offsetInCU: 0x150A2, offset: 0x150A2, size: 0x8, addend: 0x0, symName: __ZNSt3__117__compressed_pairImNS_22__unordered_map_hasherIiNS_17__hash_value_typeIiNS_6vectorI6KostkaNS_9allocatorIS4_EEEEEENS_4hashIiEENS_8equal_toIiEELb1EEEEC1B7v160006IiNS_18__default_init_tagEEEOT_OT0_, symObjAddr: 0x3EB0, symBinAddr: 0x100005E60, symSize: 0x3C }
  - { offsetInCU: 0x15100, offset: 0x15100, size: 0x8, addend: 0x0, symName: __ZNSt3__117__compressed_pairIfNS_21__unordered_map_equalIiNS_17__hash_value_typeIiNS_6vectorI6KostkaNS_9allocatorIS4_EEEEEENS_8equal_toIiEENS_4hashIiEELb1EEEEC1B7v160006IfNS_18__default_init_tagEEEOT_OT0_, symObjAddr: 0x3EEC, symBinAddr: 0x100005E9C, symSize: 0x3C }
  - { offsetInCU: 0x15158, offset: 0x15158, size: 0x8, addend: 0x0, symName: __ZNSt3__110unique_ptrIA_PNS_16__hash_node_baseIPNS_11__hash_nodeINS_17__hash_value_typeIiNS_6vectorI6KostkaNS_9allocatorIS5_EEEEEEPvEEEENS_25__bucket_list_deallocatorINS6_ISE_EEEEED1B7v160006Ev, symObjAddr: 0x3F28, symBinAddr: 0x100005ED8, symSize: 0x2C }
  - { offsetInCU: 0x15182, offset: 0x15182, size: 0x8, addend: 0x0, symName: __ZNSt3__110unique_ptrIA_PNS_16__hash_node_baseIPNS_11__hash_nodeINS_17__hash_value_typeIiNS_6vectorI6KostkaNS_9allocatorIS5_EEEEEEPvEEEENS_25__bucket_list_deallocatorINS6_ISE_EEEEEC2B7v160006ILb1EvEEv, symObjAddr: 0x3F54, symBinAddr: 0x100005F04, symSize: 0x50 }
  - { offsetInCU: 0x151BD, offset: 0x151BD, size: 0x8, addend: 0x0, symName: __ZNSt3__117__compressed_pairIPPNS_16__hash_node_baseIPNS_11__hash_nodeINS_17__hash_value_typeIiNS_6vectorI6KostkaNS_9allocatorIS5_EEEEEEPvEEEENS_25__bucket_list_deallocatorINS6_ISE_EEEEEC1B7v160006INS_16__value_init_tagESL_EEOT_OT0_, symObjAddr: 0x3FA4, symBinAddr: 0x100005F54, symSize: 0x3C }
  - { offsetInCU: 0x15215, offset: 0x15215, size: 0x8, addend: 0x0, symName: __ZNSt3__117__compressed_pairIPPNS_16__hash_node_baseIPNS_11__hash_nodeINS_17__hash_value_typeIiNS_6vectorI6KostkaNS_9allocatorIS5_EEEEEEPvEEEENS_25__bucket_list_deallocatorINS6_ISE_EEEEEC2B7v160006INS_16__value_init_tagESL_EEOT_OT0_, symObjAddr: 0x3FE0, symBinAddr: 0x100005F90, symSize: 0x40 }
  - { offsetInCU: 0x1526D, offset: 0x1526D, size: 0x8, addend: 0x0, symName: __ZNSt3__122__compressed_pair_elemIPPNS_16__hash_node_baseIPNS_11__hash_nodeINS_17__hash_value_typeIiNS_6vectorI6KostkaNS_9allocatorIS5_EEEEEEPvEEEELi0ELb0EEC2B7v160006ENS_16__value_init_tagE, symObjAddr: 0x4020, symBinAddr: 0x100005FD0, symSize: 0x18 }
  - { offsetInCU: 0x152A1, offset: 0x152A1, size: 0x8, addend: 0x0, symName: __ZNSt3__122__compressed_pair_elemINS_25__bucket_list_deallocatorINS_9allocatorIPNS_16__hash_node_baseIPNS_11__hash_nodeINS_17__hash_value_typeIiNS_6vectorI6KostkaNS2_IS7_EEEEEEPvEEEEEEEELi1ELb0EEC2B7v160006ENS_16__value_init_tagE, symObjAddr: 0x4038, symBinAddr: 0x100005FE8, symSize: 0x2C }
  - { offsetInCU: 0x152D5, offset: 0x152D5, size: 0x8, addend: 0x0, symName: __ZNSt3__125__bucket_list_deallocatorINS_9allocatorIPNS_16__hash_node_baseIPNS_11__hash_nodeINS_17__hash_value_typeIiNS_6vectorI6KostkaNS1_IS6_EEEEEEPvEEEEEEEC1B7v160006Ev, symObjAddr: 0x4064, symBinAddr: 0x100006014, symSize: 0x2C }
  - { offsetInCU: 0x152FF, offset: 0x152FF, size: 0x8, addend: 0x0, symName: __ZNSt3__125__bucket_list_deallocatorINS_9allocatorIPNS_16__hash_node_baseIPNS_11__hash_nodeINS_17__hash_value_typeIiNS_6vectorI6KostkaNS1_IS6_EEEEEEPvEEEEEEEC2B7v160006Ev, symObjAddr: 0x4090, symBinAddr: 0x100006040, symSize: 0x38 }
  - { offsetInCU: 0x15329, offset: 0x15329, size: 0x8, addend: 0x0, symName: __ZNSt3__117__compressed_pairImNS_9allocatorIPNS_16__hash_node_baseIPNS_11__hash_nodeINS_17__hash_value_typeIiNS_6vectorI6KostkaNS1_IS6_EEEEEEPvEEEEEEEC1B7v160006IiNS_18__default_init_tagEEEOT_OT0_, symObjAddr: 0x40C8, symBinAddr: 0x100006078, symSize: 0x3C }
  - { offsetInCU: 0x15381, offset: 0x15381, size: 0x8, addend: 0x0, symName: __ZNSt3__117__compressed_pairImNS_9allocatorIPNS_16__hash_node_baseIPNS_11__hash_nodeINS_17__hash_value_typeIiNS_6vectorI6KostkaNS1_IS6_EEEEEEPvEEEEEEEC2B7v160006IiNS_18__default_init_tagEEEOT_OT0_, symObjAddr: 0x4104, symBinAddr: 0x1000060B4, symSize: 0x40 }
  - { offsetInCU: 0x153D9, offset: 0x153D9, size: 0x8, addend: 0x0, symName: __ZNSt3__122__compressed_pair_elemImLi0ELb0EEC2B7v160006IivEEOT_, symObjAddr: 0x4144, symBinAddr: 0x1000060F4, symSize: 0x24 }
  - { offsetInCU: 0x1541B, offset: 0x1541B, size: 0x8, addend: 0x0, symName: __ZNSt3__122__compressed_pair_elemINS_9allocatorIPNS_16__hash_node_baseIPNS_11__hash_nodeINS_17__hash_value_typeIiNS_6vectorI6KostkaNS1_IS6_EEEEEEPvEEEEEELi1ELb1EEC2B7v160006ENS_18__default_init_tagE, symObjAddr: 0x4168, symBinAddr: 0x100006118, symSize: 0x2C }
  - { offsetInCU: 0x1544F, offset: 0x1544F, size: 0x8, addend: 0x0, symName: __ZNSt3__19allocatorIPNS_16__hash_node_baseIPNS_11__hash_nodeINS_17__hash_value_typeIiNS_6vectorI6KostkaNS0_IS5_EEEEEEPvEEEEEC2B7v160006Ev, symObjAddr: 0x4194, symBinAddr: 0x100006144, symSize: 0x2C }
  - { offsetInCU: 0x15479, offset: 0x15479, size: 0x8, addend: 0x0, symName: __ZNSt3__116__non_trivial_ifILb1ENS_9allocatorIPNS_16__hash_node_baseIPNS_11__hash_nodeINS_17__hash_value_typeIiNS_6vectorI6KostkaNS1_IS6_EEEEEEPvEEEEEEEC2B7v160006Ev, symObjAddr: 0x41C0, symBinAddr: 0x100006170, symSize: 0x14 }
  - { offsetInCU: 0x154A3, offset: 0x154A3, size: 0x8, addend: 0x0, symName: __ZNSt3__117__compressed_pairINS_16__hash_node_baseIPNS_11__hash_nodeINS_17__hash_value_typeIiNS_6vectorI6KostkaNS_9allocatorIS5_EEEEEEPvEEEENS6_ISB_EEEC2B7v160006ILb1EvEEv, symObjAddr: 0x41D4, symBinAddr: 0x100006184, symSize: 0x34 }
  - { offsetInCU: 0x154D8, offset: 0x154D8, size: 0x8, addend: 0x0, symName: __ZNSt3__122__compressed_pair_elemINS_16__hash_node_baseIPNS_11__hash_nodeINS_17__hash_value_typeIiNS_6vectorI6KostkaNS_9allocatorIS5_EEEEEEPvEEEELi0ELb0EEC2B7v160006ENS_16__value_init_tagE, symObjAddr: 0x4208, symBinAddr: 0x1000061B8, symSize: 0x2C }
  - { offsetInCU: 0x1550C, offset: 0x1550C, size: 0x8, addend: 0x0, symName: __ZNSt3__122__compressed_pair_elemINS_9allocatorINS_11__hash_nodeINS_17__hash_value_typeIiNS_6vectorI6KostkaNS1_IS5_EEEEEEPvEEEELi1ELb1EEC2B7v160006ENS_16__value_init_tagE, symObjAddr: 0x4234, symBinAddr: 0x1000061E4, symSize: 0x2C }
  - { offsetInCU: 0x15540, offset: 0x15540, size: 0x8, addend: 0x0, symName: __ZNSt3__116__hash_node_baseIPNS_11__hash_nodeINS_17__hash_value_typeIiNS_6vectorI6KostkaNS_9allocatorIS4_EEEEEEPvEEEC1B7v160006Ev, symObjAddr: 0x4260, symBinAddr: 0x100006210, symSize: 0x2C }
  - { offsetInCU: 0x1556A, offset: 0x1556A, size: 0x8, addend: 0x0, symName: __ZNSt3__116__hash_node_baseIPNS_11__hash_nodeINS_17__hash_value_typeIiNS_6vectorI6KostkaNS_9allocatorIS4_EEEEEEPvEEEC2B7v160006Ev, symObjAddr: 0x428C, symBinAddr: 0x10000623C, symSize: 0x18 }
  - { offsetInCU: 0x15594, offset: 0x15594, size: 0x8, addend: 0x0, symName: __ZNSt3__19allocatorINS_11__hash_nodeINS_17__hash_value_typeIiNS_6vectorI6KostkaNS0_IS4_EEEEEEPvEEEC2B7v160006Ev, symObjAddr: 0x42A4, symBinAddr: 0x100006254, symSize: 0x2C }
  - { offsetInCU: 0x155BE, offset: 0x155BE, size: 0x8, addend: 0x0, symName: __ZNSt3__116__non_trivial_ifILb1ENS_9allocatorINS_11__hash_nodeINS_17__hash_value_typeIiNS_6vectorI6KostkaNS1_IS5_EEEEEEPvEEEEEC2B7v160006Ev, symObjAddr: 0x42D0, symBinAddr: 0x100006280, symSize: 0x14 }
  - { offsetInCU: 0x155E8, offset: 0x155E8, size: 0x8, addend: 0x0, symName: __ZNSt3__117__compressed_pairImNS_22__unordered_map_hasherIiNS_17__hash_value_typeIiNS_6vectorI6KostkaNS_9allocatorIS4_EEEEEENS_4hashIiEENS_8equal_toIiEELb1EEEEC2B7v160006IiNS_18__default_init_tagEEEOT_OT0_, symObjAddr: 0x42E4, symBinAddr: 0x100006294, symSize: 0x40 }
  - { offsetInCU: 0x15640, offset: 0x15640, size: 0x8, addend: 0x0, symName: __ZNSt3__122__compressed_pair_elemINS_22__unordered_map_hasherIiNS_17__hash_value_typeIiNS_6vectorI6KostkaNS_9allocatorIS4_EEEEEENS_4hashIiEENS_8equal_toIiEELb1EEELi1ELb1EEC2B7v160006ENS_18__default_init_tagE, symObjAddr: 0x4324, symBinAddr: 0x1000062D4, symSize: 0x2C }
  - { offsetInCU: 0x15674, offset: 0x15674, size: 0x8, addend: 0x0, symName: __ZNSt3__122__unordered_map_hasherIiNS_17__hash_value_typeIiNS_6vectorI6KostkaNS_9allocatorIS3_EEEEEENS_4hashIiEENS_8equal_toIiEELb1EEC2B7v160006Ev, symObjAddr: 0x4350, symBinAddr: 0x100006300, symSize: 0x14 }
  - { offsetInCU: 0x1569E, offset: 0x1569E, size: 0x8, addend: 0x0, symName: __ZNSt3__117__compressed_pairIfNS_21__unordered_map_equalIiNS_17__hash_value_typeIiNS_6vectorI6KostkaNS_9allocatorIS4_EEEEEENS_8equal_toIiEENS_4hashIiEELb1EEEEC2B7v160006IfNS_18__default_init_tagEEEOT_OT0_, symObjAddr: 0x4364, symBinAddr: 0x100006314, symSize: 0x40 }
  - { offsetInCU: 0x156F6, offset: 0x156F6, size: 0x8, addend: 0x0, symName: __ZNSt3__122__compressed_pair_elemIfLi0ELb0EEC2B7v160006IfvEEOT_, symObjAddr: 0x43A4, symBinAddr: 0x100006354, symSize: 0x24 }
  - { offsetInCU: 0x15738, offset: 0x15738, size: 0x8, addend: 0x0, symName: __ZNSt3__122__compressed_pair_elemINS_21__unordered_map_equalIiNS_17__hash_value_typeIiNS_6vectorI6KostkaNS_9allocatorIS4_EEEEEENS_8equal_toIiEENS_4hashIiEELb1EEELi1ELb1EEC2B7v160006ENS_18__default_init_tagE, symObjAddr: 0x43C8, symBinAddr: 0x100006378, symSize: 0x2C }
  - { offsetInCU: 0x1576C, offset: 0x1576C, size: 0x8, addend: 0x0, symName: __ZNSt3__121__unordered_map_equalIiNS_17__hash_value_typeIiNS_6vectorI6KostkaNS_9allocatorIS3_EEEEEENS_8equal_toIiEENS_4hashIiEELb1EEC2B7v160006Ev, symObjAddr: 0x43F4, symBinAddr: 0x1000063A4, symSize: 0x14 }
  - { offsetInCU: 0x15796, offset: 0x15796, size: 0x8, addend: 0x0, symName: __ZNSt3__110unique_ptrIA_PNS_16__hash_node_baseIPNS_11__hash_nodeINS_17__hash_value_typeIiNS_6vectorI6KostkaNS_9allocatorIS5_EEEEEEPvEEEENS_25__bucket_list_deallocatorINS6_ISE_EEEEED2B7v160006Ev, symObjAddr: 0x4408, symBinAddr: 0x1000063B8, symSize: 0x30 }
  - { offsetInCU: 0x157C0, offset: 0x157C0, size: 0x8, addend: 0x0, symName: __ZNSt3__110unique_ptrIA_PNS_16__hash_node_baseIPNS_11__hash_nodeINS_17__hash_value_typeIiNS_6vectorI6KostkaNS_9allocatorIS5_EEEEEEPvEEEENS_25__bucket_list_deallocatorINS6_ISE_EEEEE5resetB7v160006EDn, symObjAddr: 0x4438, symBinAddr: 0x1000063E8, symSize: 0x6C }
  - { offsetInCU: 0x15800, offset: 0x15800, size: 0x8, addend: 0x0, symName: __ZNSt3__117__compressed_pairIPPNS_16__hash_node_baseIPNS_11__hash_nodeINS_17__hash_value_typeIiNS_6vectorI6KostkaNS_9allocatorIS5_EEEEEEPvEEEENS_25__bucket_list_deallocatorINS6_ISE_EEEEE5firstB7v160006Ev, symObjAddr: 0x44A4, symBinAddr: 0x100006454, symSize: 0x24 }
  - { offsetInCU: 0x15826, offset: 0x15826, size: 0x8, addend: 0x0, symName: __ZNSt3__117__compressed_pairIPPNS_16__hash_node_baseIPNS_11__hash_nodeINS_17__hash_value_typeIiNS_6vectorI6KostkaNS_9allocatorIS5_EEEEEEPvEEEENS_25__bucket_list_deallocatorINS6_ISE_EEEEE6secondB7v160006Ev, symObjAddr: 0x44C8, symBinAddr: 0x100006478, symSize: 0x28 }
  - { offsetInCU: 0x1584C, offset: 0x1584C, size: 0x8, addend: 0x0, symName: __ZNSt3__125__bucket_list_deallocatorINS_9allocatorIPNS_16__hash_node_baseIPNS_11__hash_nodeINS_17__hash_value_typeIiNS_6vectorI6KostkaNS1_IS6_EEEEEEPvEEEEEEEclB7v160006EPSE_, symObjAddr: 0x44F0, symBinAddr: 0x1000064A0, symSize: 0x58 }
  - { offsetInCU: 0x15881, offset: 0x15881, size: 0x8, addend: 0x0, symName: __ZNSt3__122__compressed_pair_elemIPPNS_16__hash_node_baseIPNS_11__hash_nodeINS_17__hash_value_typeIiNS_6vectorI6KostkaNS_9allocatorIS5_EEEEEEPvEEEELi0ELb0EE5__getB7v160006Ev, symObjAddr: 0x4548, symBinAddr: 0x1000064F8, symSize: 0x14 }
  - { offsetInCU: 0x158A7, offset: 0x158A7, size: 0x8, addend: 0x0, symName: __ZNSt3__122__compressed_pair_elemINS_25__bucket_list_deallocatorINS_9allocatorIPNS_16__hash_node_baseIPNS_11__hash_nodeINS_17__hash_value_typeIiNS_6vectorI6KostkaNS2_IS7_EEEEEEPvEEEEEEEELi1ELb0EE5__getB7v160006Ev, symObjAddr: 0x455C, symBinAddr: 0x10000650C, symSize: 0x14 }
  - { offsetInCU: 0x158CD, offset: 0x158CD, size: 0x8, addend: 0x0, symName: __ZNSt3__116allocator_traitsINS_9allocatorIPNS_16__hash_node_baseIPNS_11__hash_nodeINS_17__hash_value_typeIiNS_6vectorI6KostkaNS1_IS6_EEEEEEPvEEEEEEE10deallocateB7v160006ERSF_PSE_m, symObjAddr: 0x4570, symBinAddr: 0x100006520, symSize: 0x34 }
  - { offsetInCU: 0x1590F, offset: 0x1590F, size: 0x8, addend: 0x0, symName: __ZNSt3__125__bucket_list_deallocatorINS_9allocatorIPNS_16__hash_node_baseIPNS_11__hash_nodeINS_17__hash_value_typeIiNS_6vectorI6KostkaNS1_IS6_EEEEEEPvEEEEEEE7__allocB7v160006Ev, symObjAddr: 0x45A4, symBinAddr: 0x100006554, symSize: 0x24 }
  - { offsetInCU: 0x15935, offset: 0x15935, size: 0x8, addend: 0x0, symName: __ZNSt3__125__bucket_list_deallocatorINS_9allocatorIPNS_16__hash_node_baseIPNS_11__hash_nodeINS_17__hash_value_typeIiNS_6vectorI6KostkaNS1_IS6_EEEEEEPvEEEEEEE4sizeB7v160006Ev, symObjAddr: 0x45C8, symBinAddr: 0x100006578, symSize: 0x24 }
  - { offsetInCU: 0x1595B, offset: 0x1595B, size: 0x8, addend: 0x0, symName: __ZNSt3__19allocatorIPNS_16__hash_node_baseIPNS_11__hash_nodeINS_17__hash_value_typeIiNS_6vectorI6KostkaNS0_IS5_EEEEEEPvEEEEE10deallocateB7v160006EPSD_m, symObjAddr: 0x45EC, symBinAddr: 0x10000659C, symSize: 0x70 }
  - { offsetInCU: 0x1599D, offset: 0x1599D, size: 0x8, addend: 0x0, symName: __ZNSt3__117__compressed_pairImNS_9allocatorIPNS_16__hash_node_baseIPNS_11__hash_nodeINS_17__hash_value_typeIiNS_6vectorI6KostkaNS1_IS6_EEEEEEPvEEEEEEE6secondB7v160006Ev, symObjAddr: 0x465C, symBinAddr: 0x10000660C, symSize: 0x24 }
  - { offsetInCU: 0x159C3, offset: 0x159C3, size: 0x8, addend: 0x0, symName: __ZNSt3__122__compressed_pair_elemINS_9allocatorIPNS_16__hash_node_baseIPNS_11__hash_nodeINS_17__hash_value_typeIiNS_6vectorI6KostkaNS1_IS6_EEEEEEPvEEEEEELi1ELb1EE5__getB7v160006Ev, symObjAddr: 0x4680, symBinAddr: 0x100006630, symSize: 0x14 }
  - { offsetInCU: 0x159E9, offset: 0x159E9, size: 0x8, addend: 0x0, symName: __ZNSt3__117__compressed_pairImNS_9allocatorIPNS_16__hash_node_baseIPNS_11__hash_nodeINS_17__hash_value_typeIiNS_6vectorI6KostkaNS1_IS6_EEEEEEPvEEEEEEE5firstB7v160006Ev, symObjAddr: 0x4694, symBinAddr: 0x100006644, symSize: 0x24 }
  - { offsetInCU: 0x15A0F, offset: 0x15A0F, size: 0x8, addend: 0x0, symName: __ZNSt3__112__hash_tableINS_17__hash_value_typeIiNS_6vectorI6KostkaNS_9allocatorIS3_EEEEEENS_22__unordered_map_hasherIiS7_NS_4hashIiEENS_8equal_toIiEELb1EEENS_21__unordered_map_equalIiS7_SC_SA_Lb1EEENS4_IS7_EEED2Ev, symObjAddr: 0x46B8, symBinAddr: 0x100006668, symSize: 0x80 }
  - { offsetInCU: 0x15A3B, offset: 0x15A3B, size: 0x8, addend: 0x0, symName: __ZNSt3__112__hash_tableINS_17__hash_value_typeIiNS_6vectorI6KostkaNS_9allocatorIS3_EEEEEENS_22__unordered_map_hasherIiS7_NS_4hashIiEENS_8equal_toIiEELb1EEENS_21__unordered_map_equalIiS7_SC_SA_Lb1EEENS4_IS7_EEE17__deallocate_nodeEPNS_16__hash_node_baseIPNS_11__hash_nodeIS7_PvEEEE, symObjAddr: 0x4738, symBinAddr: 0x1000066E8, symSize: 0xBC }
  - { offsetInCU: 0x15AA5, offset: 0x15AA5, size: 0x8, addend: 0x0, symName: __ZNSt3__117__compressed_pairINS_16__hash_node_baseIPNS_11__hash_nodeINS_17__hash_value_typeIiNS_6vectorI6KostkaNS_9allocatorIS5_EEEEEEPvEEEENS6_ISB_EEE5firstB7v160006Ev, symObjAddr: 0x47F4, symBinAddr: 0x1000067A4, symSize: 0x24 }
  - { offsetInCU: 0x15ACB, offset: 0x15ACB, size: 0x8, addend: 0x0, symName: __ZNSt3__112__hash_tableINS_17__hash_value_typeIiNS_6vectorI6KostkaNS_9allocatorIS3_EEEEEENS_22__unordered_map_hasherIiS7_NS_4hashIiEENS_8equal_toIiEELb1EEENS_21__unordered_map_equalIiS7_SC_SA_Lb1EEENS4_IS7_EEE12__node_allocB7v160006Ev, symObjAddr: 0x4828, symBinAddr: 0x1000067D8, symSize: 0x28 }
  - { offsetInCU: 0x15AF1, offset: 0x15AF1, size: 0x8, addend: 0x0, symName: __ZNSt3__116__hash_node_baseIPNS_11__hash_nodeINS_17__hash_value_typeIiNS_6vectorI6KostkaNS_9allocatorIS4_EEEEEEPvEEE8__upcastB7v160006Ev, symObjAddr: 0x4850, symBinAddr: 0x100006800, symSize: 0x24 }
  - { offsetInCU: 0x15B17, offset: 0x15B17, size: 0x8, addend: 0x0, symName: __ZNSt3__116allocator_traitsINS_9allocatorINS_11__hash_nodeINS_17__hash_value_typeIiNS_6vectorI6KostkaNS1_IS5_EEEEEEPvEEEEE7destroyB7v160006INS_4pairIKiS7_EEvvEEvRSB_PT_, symObjAddr: 0x4874, symBinAddr: 0x100006824, symSize: 0x28 }
  - { offsetInCU: 0x15B51, offset: 0x15B51, size: 0x8, addend: 0x0, symName: __ZNSt3__122__hash_key_value_typesINS_17__hash_value_typeIiNS_6vectorI6KostkaNS_9allocatorIS3_EEEEEEE9__get_ptrB7v160006ERS7_, symObjAddr: 0x489C, symBinAddr: 0x10000684C, symSize: 0x24 }
  - { offsetInCU: 0x15B74, offset: 0x15B74, size: 0x8, addend: 0x0, symName: __ZNSt3__116allocator_traitsINS_9allocatorINS_11__hash_nodeINS_17__hash_value_typeIiNS_6vectorI6KostkaNS1_IS5_EEEEEEPvEEEEE10deallocateB7v160006ERSB_PSA_m, symObjAddr: 0x48C0, symBinAddr: 0x100006870, symSize: 0x34 }
  - { offsetInCU: 0x15BB6, offset: 0x15BB6, size: 0x8, addend: 0x0, symName: __ZNSt3__117__compressed_pairINS_16__hash_node_baseIPNS_11__hash_nodeINS_17__hash_value_typeIiNS_6vectorI6KostkaNS_9allocatorIS5_EEEEEEPvEEEENS6_ISB_EEE6secondB7v160006Ev, symObjAddr: 0x48F4, symBinAddr: 0x1000068A4, symSize: 0x24 }
  - { offsetInCU: 0x15BDC, offset: 0x15BDC, size: 0x8, addend: 0x0, symName: __ZNSt3__122__compressed_pair_elemINS_9allocatorINS_11__hash_nodeINS_17__hash_value_typeIiNS_6vectorI6KostkaNS1_IS5_EEEEEEPvEEEELi1ELb1EE5__getB7v160006Ev, symObjAddr: 0x4918, symBinAddr: 0x1000068C8, symSize: 0x14 }
  - { offsetInCU: 0x15C02, offset: 0x15C02, size: 0x8, addend: 0x0, symName: __ZNSt3__114pointer_traitsIPNS_16__hash_node_baseIPNS_11__hash_nodeINS_17__hash_value_typeIiNS_6vectorI6KostkaNS_9allocatorIS5_EEEEEEPvEEEEE10pointer_toB7v160006ERSD_, symObjAddr: 0x492C, symBinAddr: 0x1000068DC, symSize: 0x14 }
  - { offsetInCU: 0x15C25, offset: 0x15C25, size: 0x8, addend: 0x0, symName: __ZNSt3__14pairIKiNS_6vectorI6KostkaNS_9allocatorIS3_EEEEED1Ev, symObjAddr: 0x4940, symBinAddr: 0x1000068F0, symSize: 0x2C }
  - { offsetInCU: 0x15C51, offset: 0x15C51, size: 0x8, addend: 0x0, symName: __ZNSt3__14pairIKiNS_6vectorI6KostkaNS_9allocatorIS3_EEEEED2Ev, symObjAddr: 0x496C, symBinAddr: 0x10000691C, symSize: 0x30 }
  - { offsetInCU: 0x15C7D, offset: 0x15C7D, size: 0x8, addend: 0x0, symName: __ZNSt3__117__hash_value_typeIiNS_6vectorI6KostkaNS_9allocatorIS2_EEEEE11__get_valueB7v160006Ev, symObjAddr: 0x499C, symBinAddr: 0x10000694C, symSize: 0x14 }
  - { offsetInCU: 0x15CA3, offset: 0x15CA3, size: 0x8, addend: 0x0, symName: __ZNSt3__19allocatorINS_11__hash_nodeINS_17__hash_value_typeIiNS_6vectorI6KostkaNS0_IS4_EEEEEEPvEEE10deallocateB7v160006EPS9_m, symObjAddr: 0x49B0, symBinAddr: 0x100006960, symSize: 0x74 }
  - { offsetInCU: 0x15CE5, offset: 0x15CE5, size: 0x8, addend: 0x0, symName: __ZNSt3__122__compressed_pair_elemINS_16__hash_node_baseIPNS_11__hash_nodeINS_17__hash_value_typeIiNS_6vectorI6KostkaNS_9allocatorIS5_EEEEEEPvEEEELi0ELb0EE5__getB7v160006Ev, symObjAddr: 0x4A24, symBinAddr: 0x1000069D4, symSize: 0x14 }
  - { offsetInCU: 0x15D0B, offset: 0x15D0B, size: 0x8, addend: 0x0, symName: __ZNSt3__113unordered_mapIiNS_6vectorI6KostkaNS_9allocatorIS2_EEEENS_4hashIiEENS_8equal_toIiEENS3_INS_4pairIKiS5_EEEEED2B7v160006Ev, symObjAddr: 0x4A38, symBinAddr: 0x1000069E8, symSize: 0x2C }
  - { offsetInCU: 0x15D35, offset: 0x15D35, size: 0x8, addend: 0x0, symName: __ZNSt3__16vectorI6KostkaNS_9allocatorIS1_EEE11__make_iterB7v160006EPS1_, symObjAddr: 0x4A64, symBinAddr: 0x100006A14, symSize: 0x34 }
  - { offsetInCU: 0x15D6A, offset: 0x15D6A, size: 0x8, addend: 0x0, symName: __ZNSt3__111__wrap_iterIP6KostkaEC1B7v160006EPKvS2_, symObjAddr: 0x4A98, symBinAddr: 0x100006A48, symSize: 0x3C }
  - { offsetInCU: 0x15DB0, offset: 0x15DB0, size: 0x8, addend: 0x0, symName: __ZNSt3__111__wrap_iterIP6KostkaEC2B7v160006EPKvS2_, symObjAddr: 0x4AD4, symBinAddr: 0x100006A84, symSize: 0x24 }
  - { offsetInCU: 0x15DF6, offset: 0x15DF6, size: 0x8, addend: 0x0, symName: __ZNKSt3__111__wrap_iterIP6KostkaE4baseB7v160006Ev, symObjAddr: 0x4B40, symBinAddr: 0x100006AF0, symSize: 0x18 }
  - { offsetInCU: 0x15E1C, offset: 0x15E1C, size: 0x8, addend: 0x0, symName: __ZNKSt3__119__hash_map_iteratorINS_15__hash_iteratorIPNS_11__hash_nodeINS_17__hash_value_typeIiNS_6vectorI6KostkaNS_9allocatorIS5_EEEEEEPvEEEEEptB7v160006Ev, symObjAddr: 0x4B88, symBinAddr: 0x100006B38, symSize: 0x2C }
  - { offsetInCU: 0x15E42, offset: 0x15E42, size: 0x8, addend: 0x0, symName: __ZNSt3__113unordered_mapIiNS_6vectorI6KostkaNS_9allocatorIS2_EEEENS_4hashIiEENS_8equal_toIiEENS3_INS_4pairIKiS5_EEEEE25__construct_node_with_keyERSB_, symObjAddr: 0x4BB4, symBinAddr: 0x100006B64, symSize: 0x144 }
  - { offsetInCU: 0x15E98, offset: 0x15E98, size: 0x8, addend: 0x0, symName: __ZNSt3__112__hash_tableINS_17__hash_value_typeIiNS_6vectorI6KostkaNS_9allocatorIS3_EEEEEENS_22__unordered_map_hasherIiS7_NS_4hashIiEENS_8equal_toIiEELb1EEENS_21__unordered_map_equalIiS7_SC_SA_Lb1EEENS4_IS7_EEE20__node_insert_uniqueEPNS_11__hash_nodeIS7_PvEE, symObjAddr: 0x4CF8, symBinAddr: 0x100006CA8, symSize: 0xC8 }
  - { offsetInCU: 0x15EED, offset: 0x15EED, size: 0x8, addend: 0x0, symName: __ZNKSt3__110unique_ptrINS_11__hash_nodeINS_17__hash_value_typeIiNS_6vectorI6KostkaNS_9allocatorIS4_EEEEEEPvEENS_26__hash_map_node_destructorINS5_ISA_EEEEE3getB7v160006Ev, symObjAddr: 0x4DC0, symBinAddr: 0x100006D70, symSize: 0x28 }
  - { offsetInCU: 0x15F13, offset: 0x15F13, size: 0x8, addend: 0x0, symName: __ZNSt3__14pairINS_19__hash_map_iteratorINS_15__hash_iteratorIPNS_11__hash_nodeINS_17__hash_value_typeIiNS_6vectorI6KostkaNS_9allocatorIS6_EEEEEEPvEEEEEEbEC1B7v160006ISE_bEERKNS0_IT_T0_EE, symObjAddr: 0x4DE8, symBinAddr: 0x100006D98, symSize: 0x34 }
  - { offsetInCU: 0x15F5D, offset: 0x15F5D, size: 0x8, addend: 0x0, symName: __ZNSt3__110unique_ptrINS_11__hash_nodeINS_17__hash_value_typeIiNS_6vectorI6KostkaNS_9allocatorIS4_EEEEEEPvEENS_26__hash_map_node_destructorINS5_ISA_EEEEE7releaseB7v160006Ev, symObjAddr: 0x4E1C, symBinAddr: 0x100006DCC, symSize: 0x44 }
  - { offsetInCU: 0x15F92, offset: 0x15F92, size: 0x8, addend: 0x0, symName: __ZNSt3__110unique_ptrINS_11__hash_nodeINS_17__hash_value_typeIiNS_6vectorI6KostkaNS_9allocatorIS4_EEEEEEPvEENS_26__hash_map_node_destructorINS5_ISA_EEEEED1B7v160006Ev, symObjAddr: 0x4E60, symBinAddr: 0x100006E10, symSize: 0x2C }
  - { offsetInCU: 0x15FBC, offset: 0x15FBC, size: 0x8, addend: 0x0, symName: __ZNSt3__114pointer_traitsIPNS_4pairIKiNS_6vectorI6KostkaNS_9allocatorIS4_EEEEEEE10pointer_toB7v160006ERS8_, symObjAddr: 0x4EF0, symBinAddr: 0x100006EA0, symSize: 0x14 }
  - { offsetInCU: 0x15FDF, offset: 0x15FDF, size: 0x8, addend: 0x0, symName: __ZNKSt3__115__hash_iteratorIPNS_11__hash_nodeINS_17__hash_value_typeIiNS_6vectorI6KostkaNS_9allocatorIS4_EEEEEEPvEEEptB7v160006Ev, symObjAddr: 0x4F04, symBinAddr: 0x100006EB4, symSize: 0x30 }
  - { offsetInCU: 0x16005, offset: 0x16005, size: 0x8, addend: 0x0, symName: __ZNSt3__114pointer_traitsIPNS_17__hash_value_typeIiNS_6vectorI6KostkaNS_9allocatorIS3_EEEEEEE10pointer_toB7v160006ERS7_, symObjAddr: 0x4F34, symBinAddr: 0x100006EE4, symSize: 0x14 }
  - { offsetInCU: 0x16028, offset: 0x16028, size: 0x8, addend: 0x0, symName: __ZNSt3__116allocator_traitsINS_9allocatorINS_11__hash_nodeINS_17__hash_value_typeIiNS_6vectorI6KostkaNS1_IS5_EEEEEEPvEEEEE8allocateB7v160006ERSB_m, symObjAddr: 0x4F48, symBinAddr: 0x100006EF8, symSize: 0x2C }
  - { offsetInCU: 0x1605B, offset: 0x1605B, size: 0x8, addend: 0x0, symName: __ZNSt3__126__hash_map_node_destructorINS_9allocatorINS_11__hash_nodeINS_17__hash_value_typeIiNS_6vectorI6KostkaNS1_IS5_EEEEEEPvEEEEEC1B7v160006ERSB_, symObjAddr: 0x4F74, symBinAddr: 0x100006F24, symSize: 0x34 }
  - { offsetInCU: 0x1609A, offset: 0x1609A, size: 0x8, addend: 0x0, symName: __ZNSt3__110unique_ptrINS_11__hash_nodeINS_17__hash_value_typeIiNS_6vectorI6KostkaNS_9allocatorIS4_EEEEEEPvEENS_26__hash_map_node_destructorINS5_ISA_EEEEEC1B7v160006ILb1EvEEPSA_NS_16__dependent_typeINS_27__unique_ptr_deleter_sfinaeISD_EEXT_EE20__good_rval_ref_typeE, symObjAddr: 0x4FA8, symBinAddr: 0x100006F58, symSize: 0x3C }
  - { offsetInCU: 0x160F0, offset: 0x160F0, size: 0x8, addend: 0x0, symName: __ZNSt3__116allocator_traitsINS_9allocatorINS_11__hash_nodeINS_17__hash_value_typeIiNS_6vectorI6KostkaNS1_IS5_EEEEEEPvEEEEE9constructB7v160006IKiJRSE_EvEEvRSB_PT_DpOT0_, symObjAddr: 0x4FE4, symBinAddr: 0x100006F94, symSize: 0x34 }
  - { offsetInCU: 0x16147, offset: 0x16147, size: 0x8, addend: 0x0, symName: __ZNKSt3__110unique_ptrINS_11__hash_nodeINS_17__hash_value_typeIiNS_6vectorI6KostkaNS_9allocatorIS4_EEEEEEPvEENS_26__hash_map_node_destructorINS5_ISA_EEEEEptB7v160006Ev, symObjAddr: 0x5018, symBinAddr: 0x100006FC8, symSize: 0x28 }
  - { offsetInCU: 0x1616D, offset: 0x1616D, size: 0x8, addend: 0x0, symName: __ZNSt3__110unique_ptrINS_11__hash_nodeINS_17__hash_value_typeIiNS_6vectorI6KostkaNS_9allocatorIS4_EEEEEEPvEENS_26__hash_map_node_destructorINS5_ISA_EEEEE11get_deleterB7v160006Ev, symObjAddr: 0x5040, symBinAddr: 0x100006FF0, symSize: 0x24 }
  - { offsetInCU: 0x16198, offset: 0x16198, size: 0x8, addend: 0x0, symName: __ZNSt3__116allocator_traitsINS_9allocatorINS_11__hash_nodeINS_17__hash_value_typeIiNS_6vectorI6KostkaNS1_IS5_EEEEEEPvEEEEE9constructB7v160006IS7_JEvEEvRSB_PT_DpOT0_, symObjAddr: 0x5064, symBinAddr: 0x100007014, symSize: 0x2C }
  - { offsetInCU: 0x161DA, offset: 0x161DA, size: 0x8, addend: 0x0, symName: __ZNSt3__19allocatorINS_11__hash_nodeINS_17__hash_value_typeIiNS_6vectorI6KostkaNS0_IS4_EEEEEEPvEEE8allocateB7v160006Em, symObjAddr: 0x5090, symBinAddr: 0x100007040, symSize: 0x8C }
  - { offsetInCU: 0x16218, offset: 0x16218, size: 0x8, addend: 0x0, symName: __ZNSt3__116allocator_traitsINS_9allocatorINS_11__hash_nodeINS_17__hash_value_typeIiNS_6vectorI6KostkaNS1_IS5_EEEEEEPvEEEEE8max_sizeB7v160006ISB_vEEmRKSB_, symObjAddr: 0x511C, symBinAddr: 0x1000070CC, symSize: 0x24 }
  - { offsetInCU: 0x16246, offset: 0x16246, size: 0x8, addend: 0x0, symName: __ZNKSt3__19allocatorINS_11__hash_nodeINS_17__hash_value_typeIiNS_6vectorI6KostkaNS0_IS4_EEEEEEPvEEE8max_sizeB7v160006Ev, symObjAddr: 0x5140, symBinAddr: 0x1000070F0, symSize: 0x18 }
  - { offsetInCU: 0x1626C, offset: 0x1626C, size: 0x8, addend: 0x0, symName: __ZNSt3__126__hash_map_node_destructorINS_9allocatorINS_11__hash_nodeINS_17__hash_value_typeIiNS_6vectorI6KostkaNS1_IS5_EEEEEEPvEEEEEC2B7v160006ERSB_, symObjAddr: 0x5158, symBinAddr: 0x100007108, symSize: 0x28 }
  - { offsetInCU: 0x162A5, offset: 0x162A5, size: 0x8, addend: 0x0, symName: __ZNSt3__110unique_ptrINS_11__hash_nodeINS_17__hash_value_typeIiNS_6vectorI6KostkaNS_9allocatorIS4_EEEEEEPvEENS_26__hash_map_node_destructorINS5_ISA_EEEEEC2B7v160006ILb1EvEEPSA_NS_16__dependent_typeINS_27__unique_ptr_deleter_sfinaeISD_EEXT_EE20__good_rval_ref_typeE, symObjAddr: 0x5180, symBinAddr: 0x100007130, symSize: 0x5C }
  - { offsetInCU: 0x162F6, offset: 0x162F6, size: 0x8, addend: 0x0, symName: __ZNSt3__117__compressed_pairIPNS_11__hash_nodeINS_17__hash_value_typeIiNS_6vectorI6KostkaNS_9allocatorIS4_EEEEEEPvEENS_26__hash_map_node_destructorINS5_ISA_EEEEEC1B7v160006IRSB_SE_EEOT_OT0_, symObjAddr: 0x51DC, symBinAddr: 0x10000718C, symSize: 0x3C }
  - { offsetInCU: 0x1634E, offset: 0x1634E, size: 0x8, addend: 0x0, symName: __ZNSt3__117__compressed_pairIPNS_11__hash_nodeINS_17__hash_value_typeIiNS_6vectorI6KostkaNS_9allocatorIS4_EEEEEEPvEENS_26__hash_map_node_destructorINS5_ISA_EEEEEC2B7v160006IRSB_SE_EEOT_OT0_, symObjAddr: 0x5218, symBinAddr: 0x1000071C8, symSize: 0x48 }
  - { offsetInCU: 0x163A6, offset: 0x163A6, size: 0x8, addend: 0x0, symName: __ZNSt3__122__compressed_pair_elemIPNS_11__hash_nodeINS_17__hash_value_typeIiNS_6vectorI6KostkaNS_9allocatorIS4_EEEEEEPvEELi0ELb0EEC2B7v160006IRSB_vEEOT_, symObjAddr: 0x5260, symBinAddr: 0x100007210, symSize: 0x24 }
  - { offsetInCU: 0x163E8, offset: 0x163E8, size: 0x8, addend: 0x0, symName: __ZNSt3__122__compressed_pair_elemINS_26__hash_map_node_destructorINS_9allocatorINS_11__hash_nodeINS_17__hash_value_typeIiNS_6vectorI6KostkaNS2_IS6_EEEEEEPvEEEEEELi1ELb0EEC2B7v160006ISD_vEEOT_, symObjAddr: 0x5284, symBinAddr: 0x100007234, symSize: 0x24 }
  - { offsetInCU: 0x1642A, offset: 0x1642A, size: 0x8, addend: 0x0, symName: __ZNSt3__19allocatorINS_11__hash_nodeINS_17__hash_value_typeIiNS_6vectorI6KostkaNS0_IS4_EEEEEEPvEEE9constructB7v160006IKiJRSC_EEEvPT_DpOT0_, symObjAddr: 0x52A8, symBinAddr: 0x100007258, symSize: 0x28 }
  - { offsetInCU: 0x16480, offset: 0x16480, size: 0x8, addend: 0x0, symName: __ZNKSt3__117__compressed_pairIPNS_11__hash_nodeINS_17__hash_value_typeIiNS_6vectorI6KostkaNS_9allocatorIS4_EEEEEEPvEENS_26__hash_map_node_destructorINS5_ISA_EEEEE5firstB7v160006Ev, symObjAddr: 0x52D0, symBinAddr: 0x100007280, symSize: 0x24 }
  - { offsetInCU: 0x164A6, offset: 0x164A6, size: 0x8, addend: 0x0, symName: __ZNKSt3__122__compressed_pair_elemIPNS_11__hash_nodeINS_17__hash_value_typeIiNS_6vectorI6KostkaNS_9allocatorIS4_EEEEEEPvEELi0ELb0EE5__getB7v160006Ev, symObjAddr: 0x52F4, symBinAddr: 0x1000072A4, symSize: 0x14 }
  - { offsetInCU: 0x164CC, offset: 0x164CC, size: 0x8, addend: 0x0, symName: __ZNSt3__117__compressed_pairIPNS_11__hash_nodeINS_17__hash_value_typeIiNS_6vectorI6KostkaNS_9allocatorIS4_EEEEEEPvEENS_26__hash_map_node_destructorINS5_ISA_EEEEE6secondB7v160006Ev, symObjAddr: 0x5308, symBinAddr: 0x1000072B8, symSize: 0x28 }
  - { offsetInCU: 0x164F2, offset: 0x164F2, size: 0x8, addend: 0x0, symName: __ZNSt3__122__compressed_pair_elemINS_26__hash_map_node_destructorINS_9allocatorINS_11__hash_nodeINS_17__hash_value_typeIiNS_6vectorI6KostkaNS2_IS6_EEEEEEPvEEEEEELi1ELb0EE5__getB7v160006Ev, symObjAddr: 0x5330, symBinAddr: 0x1000072E0, symSize: 0x14 }
  - { offsetInCU: 0x16518, offset: 0x16518, size: 0x8, addend: 0x0, symName: __ZNSt3__19allocatorINS_11__hash_nodeINS_17__hash_value_typeIiNS_6vectorI6KostkaNS0_IS4_EEEEEEPvEEE9constructB7v160006IS6_JEEEvPT_DpOT0_, symObjAddr: 0x5344, symBinAddr: 0x1000072F4, symSize: 0x28 }
  - { offsetInCU: 0x1655A, offset: 0x1655A, size: 0x8, addend: 0x0, symName: __ZNSt3__112__hash_tableINS_17__hash_value_typeIiNS_6vectorI6KostkaNS_9allocatorIS3_EEEEEENS_22__unordered_map_hasherIiS7_NS_4hashIiEENS_8equal_toIiEELb1EEENS_21__unordered_map_equalIiS7_SC_SA_Lb1EEENS4_IS7_EEE13hash_functionB7v160006Ev, symObjAddr: 0x536C, symBinAddr: 0x10000731C, symSize: 0x28 }
  - { offsetInCU: 0x16580, offset: 0x16580, size: 0x8, addend: 0x0, symName: __ZNKSt3__122__unordered_map_hasherIiNS_17__hash_value_typeIiNS_6vectorI6KostkaNS_9allocatorIS3_EEEEEENS_4hashIiEENS_8equal_toIiEELb1EEclB7v160006ERKS7_, symObjAddr: 0x5394, symBinAddr: 0x100007344, symSize: 0x40 }
  - { offsetInCU: 0x165B5, offset: 0x165B5, size: 0x8, addend: 0x0, symName: __ZNSt3__112__hash_tableINS_17__hash_value_typeIiNS_6vectorI6KostkaNS_9allocatorIS3_EEEEEENS_22__unordered_map_hasherIiS7_NS_4hashIiEENS_8equal_toIiEELb1EEENS_21__unordered_map_equalIiS7_SC_SA_Lb1EEENS4_IS7_EEE28__node_insert_unique_prepareB7v160006EmRS7_, symObjAddr: 0x53D4, symBinAddr: 0x100007384, symSize: 0x244 }
  - { offsetInCU: 0x16637, offset: 0x16637, size: 0x8, addend: 0x0, symName: __ZNKSt3__116__hash_node_baseIPNS_11__hash_nodeINS_17__hash_value_typeIiNS_6vectorI6KostkaNS_9allocatorIS4_EEEEEEPvEEE6__hashB7v160006Ev, symObjAddr: 0x5618, symBinAddr: 0x1000075C8, symSize: 0x18 }
  - { offsetInCU: 0x1665D, offset: 0x1665D, size: 0x8, addend: 0x0, symName: __ZNSt3__112__hash_tableINS_17__hash_value_typeIiNS_6vectorI6KostkaNS_9allocatorIS3_EEEEEENS_22__unordered_map_hasherIiS7_NS_4hashIiEENS_8equal_toIiEELb1EEENS_21__unordered_map_equalIiS7_SC_SA_Lb1EEENS4_IS7_EEE28__node_insert_unique_performB7v160006EPNS_11__hash_nodeIS7_PvEE, symObjAddr: 0x5630, symBinAddr: 0x1000075E0, symSize: 0x154 }
  - { offsetInCU: 0x166C1, offset: 0x166C1, size: 0x8, addend: 0x0, symName: __ZNSt3__116__hash_node_baseIPNS_11__hash_nodeINS_17__hash_value_typeIiNS_6vectorI6KostkaNS_9allocatorIS4_EEEEEEPvEEE5__ptrB7v160006Ev, symObjAddr: 0x5784, symBinAddr: 0x100007734, symSize: 0x24 }
  - { offsetInCU: 0x166E7, offset: 0x166E7, size: 0x8, addend: 0x0, symName: __ZNSt3__115__hash_iteratorIPNS_11__hash_nodeINS_17__hash_value_typeIiNS_6vectorI6KostkaNS_9allocatorIS4_EEEEEEPvEEEC1B7v160006EPNS_16__hash_node_baseISB_EEPKv, symObjAddr: 0x57A8, symBinAddr: 0x100007758, symSize: 0x3C }
  - { offsetInCU: 0x1672F, offset: 0x1672F, size: 0x8, addend: 0x0, symName: __ZNSt3__14pairINS_15__hash_iteratorIPNS_11__hash_nodeINS_17__hash_value_typeIiNS_6vectorI6KostkaNS_9allocatorIS5_EEEEEEPvEEEEbEC1B7v160006ERKSD_RKb, symObjAddr: 0x57E4, symBinAddr: 0x100007794, symSize: 0x3C }
  - { offsetInCU: 0x16775, offset: 0x16775, size: 0x8, addend: 0x0, symName: __ZNSt3__117__compressed_pairImNS_22__unordered_map_hasherIiNS_17__hash_value_typeIiNS_6vectorI6KostkaNS_9allocatorIS4_EEEEEENS_4hashIiEENS_8equal_toIiEELb1EEEE6secondB7v160006Ev, symObjAddr: 0x5820, symBinAddr: 0x1000077D0, symSize: 0x24 }
  - { offsetInCU: 0x1679B, offset: 0x1679B, size: 0x8, addend: 0x0, symName: __ZNSt3__122__compressed_pair_elemINS_22__unordered_map_hasherIiNS_17__hash_value_typeIiNS_6vectorI6KostkaNS_9allocatorIS4_EEEEEENS_4hashIiEENS_8equal_toIiEELb1EEELi1ELb1EE5__getB7v160006Ev, symObjAddr: 0x5844, symBinAddr: 0x1000077F4, symSize: 0x14 }
  - { offsetInCU: 0x167C1, offset: 0x167C1, size: 0x8, addend: 0x0, symName: __ZNKSt3__14hashIiEclB7v160006Ei, symObjAddr: 0x5858, symBinAddr: 0x100007808, symSize: 0x18 }
  - { offsetInCU: 0x167F6, offset: 0x167F6, size: 0x8, addend: 0x0, symName: __ZNKSt3__117__hash_value_typeIiNS_6vectorI6KostkaNS_9allocatorIS2_EEEEE11__get_valueB7v160006Ev, symObjAddr: 0x5870, symBinAddr: 0x100007820, symSize: 0x14 }
  - { offsetInCU: 0x1681C, offset: 0x1681C, size: 0x8, addend: 0x0, symName: __ZNKSt3__112__hash_tableINS_17__hash_value_typeIiNS_6vectorI6KostkaNS_9allocatorIS3_EEEEEENS_22__unordered_map_hasherIiS7_NS_4hashIiEENS_8equal_toIiEELb1EEENS_21__unordered_map_equalIiS7_SC_SA_Lb1EEENS4_IS7_EEE12bucket_countB7v160006Ev, symObjAddr: 0x5884, symBinAddr: 0x100007834, symSize: 0x28 }
  - { offsetInCU: 0x16842, offset: 0x16842, size: 0x8, addend: 0x0, symName: __ZNKSt3__110unique_ptrIA_PNS_16__hash_node_baseIPNS_11__hash_nodeINS_17__hash_value_typeIiNS_6vectorI6KostkaNS_9allocatorIS5_EEEEEEPvEEEENS_25__bucket_list_deallocatorINS6_ISE_EEEEEixB7v160006Em, symObjAddr: 0x5944, symBinAddr: 0x1000078F4, symSize: 0x34 }
  - { offsetInCU: 0x16877, offset: 0x16877, size: 0x8, addend: 0x0, symName: __ZNSt3__112__hash_tableINS_17__hash_value_typeIiNS_6vectorI6KostkaNS_9allocatorIS3_EEEEEENS_22__unordered_map_hasherIiS7_NS_4hashIiEENS_8equal_toIiEELb1EEENS_21__unordered_map_equalIiS7_SC_SA_Lb1EEENS4_IS7_EEE6key_eqB7v160006Ev, symObjAddr: 0x5978, symBinAddr: 0x100007928, symSize: 0x28 }
  - { offsetInCU: 0x1689D, offset: 0x1689D, size: 0x8, addend: 0x0, symName: __ZNKSt3__121__unordered_map_equalIiNS_17__hash_value_typeIiNS_6vectorI6KostkaNS_9allocatorIS3_EEEEEENS_8equal_toIiEENS_4hashIiEELb1EEclB7v160006ERKS7_SE_, symObjAddr: 0x59A0, symBinAddr: 0x100007950, symSize: 0x54 }
  - { offsetInCU: 0x168E1, offset: 0x168E1, size: 0x8, addend: 0x0, symName: __ZNSt3__112__hash_tableINS_17__hash_value_typeIiNS_6vectorI6KostkaNS_9allocatorIS3_EEEEEENS_22__unordered_map_hasherIiS7_NS_4hashIiEENS_8equal_toIiEELb1EEENS_21__unordered_map_equalIiS7_SC_SA_Lb1EEENS4_IS7_EEE4sizeB7v160006Ev, symObjAddr: 0x59F4, symBinAddr: 0x1000079A4, symSize: 0x28 }
  - { offsetInCU: 0x16907, offset: 0x16907, size: 0x8, addend: 0x0, symName: __ZNSt3__112__hash_tableINS_17__hash_value_typeIiNS_6vectorI6KostkaNS_9allocatorIS3_EEEEEENS_22__unordered_map_hasherIiS7_NS_4hashIiEENS_8equal_toIiEELb1EEENS_21__unordered_map_equalIiS7_SC_SA_Lb1EEENS4_IS7_EEE15max_load_factorB7v160006Ev, symObjAddr: 0x5A1C, symBinAddr: 0x1000079CC, symSize: 0x28 }
  - { offsetInCU: 0x1692D, offset: 0x1692D, size: 0x8, addend: 0x0, symName: __ZNSt3__112__hash_tableINS_17__hash_value_typeIiNS_6vectorI6KostkaNS_9allocatorIS3_EEEEEENS_22__unordered_map_hasherIiS7_NS_4hashIiEENS_8equal_toIiEELb1EEENS_21__unordered_map_equalIiS7_SC_SA_Lb1EEENS4_IS7_EEE15__rehash_uniqueB7v160006Em, symObjAddr: 0x5A44, symBinAddr: 0x1000079F4, symSize: 0x2C }
  - { offsetInCU: 0x16961, offset: 0x16961, size: 0x8, addend: 0x0, symName: __Z4ceilB7v160006f, symObjAddr: 0x5AC0, symBinAddr: 0x100007A70, symSize: 0x18 }
  - { offsetInCU: 0x16990, offset: 0x16990, size: 0x8, addend: 0x0, symName: __ZNKSt3__110unique_ptrIA_PNS_16__hash_node_baseIPNS_11__hash_nodeINS_17__hash_value_typeIiNS_6vectorI6KostkaNS_9allocatorIS5_EEEEEEPvEEEENS_25__bucket_list_deallocatorINS6_ISE_EEEEE11get_deleterB7v160006Ev, symObjAddr: 0x5AD8, symBinAddr: 0x100007A88, symSize: 0x24 }
  - { offsetInCU: 0x169B6, offset: 0x169B6, size: 0x8, addend: 0x0, symName: __ZNKSt3__125__bucket_list_deallocatorINS_9allocatorIPNS_16__hash_node_baseIPNS_11__hash_nodeINS_17__hash_value_typeIiNS_6vectorI6KostkaNS1_IS6_EEEEEEPvEEEEEEE4sizeB7v160006Ev, symObjAddr: 0x5AFC, symBinAddr: 0x100007AAC, symSize: 0x28 }
  - { offsetInCU: 0x169DC, offset: 0x169DC, size: 0x8, addend: 0x0, symName: __ZNKSt3__117__compressed_pairIPPNS_16__hash_node_baseIPNS_11__hash_nodeINS_17__hash_value_typeIiNS_6vectorI6KostkaNS_9allocatorIS5_EEEEEEPvEEEENS_25__bucket_list_deallocatorINS6_ISE_EEEEE6secondB7v160006Ev, symObjAddr: 0x5B24, symBinAddr: 0x100007AD4, symSize: 0x28 }
  - { offsetInCU: 0x16A02, offset: 0x16A02, size: 0x8, addend: 0x0, symName: __ZNKSt3__122__compressed_pair_elemINS_25__bucket_list_deallocatorINS_9allocatorIPNS_16__hash_node_baseIPNS_11__hash_nodeINS_17__hash_value_typeIiNS_6vectorI6KostkaNS2_IS7_EEEEEEPvEEEEEEEELi1ELb0EE5__getB7v160006Ev, symObjAddr: 0x5B4C, symBinAddr: 0x100007AFC, symSize: 0x14 }
  - { offsetInCU: 0x16A28, offset: 0x16A28, size: 0x8, addend: 0x0, symName: __ZNKSt3__117__compressed_pairImNS_9allocatorIPNS_16__hash_node_baseIPNS_11__hash_nodeINS_17__hash_value_typeIiNS_6vectorI6KostkaNS1_IS6_EEEEEEPvEEEEEEE5firstB7v160006Ev, symObjAddr: 0x5B60, symBinAddr: 0x100007B10, symSize: 0x24 }
  - { offsetInCU: 0x16A4E, offset: 0x16A4E, size: 0x8, addend: 0x0, symName: __ZNKSt3__117__compressed_pairIPPNS_16__hash_node_baseIPNS_11__hash_nodeINS_17__hash_value_typeIiNS_6vectorI6KostkaNS_9allocatorIS5_EEEEEEPvEEEENS_25__bucket_list_deallocatorINS6_ISE_EEEEE5firstB7v160006Ev, symObjAddr: 0x5B84, symBinAddr: 0x100007B34, symSize: 0x24 }
  - { offsetInCU: 0x16A74, offset: 0x16A74, size: 0x8, addend: 0x0, symName: __ZNKSt3__122__compressed_pair_elemIPPNS_16__hash_node_baseIPNS_11__hash_nodeINS_17__hash_value_typeIiNS_6vectorI6KostkaNS_9allocatorIS5_EEEEEEPvEEEELi0ELb0EE5__getB7v160006Ev, symObjAddr: 0x5BA8, symBinAddr: 0x100007B58, symSize: 0x14 }
  - { offsetInCU: 0x16A9A, offset: 0x16A9A, size: 0x8, addend: 0x0, symName: __ZNSt3__117__compressed_pairIfNS_21__unordered_map_equalIiNS_17__hash_value_typeIiNS_6vectorI6KostkaNS_9allocatorIS4_EEEEEENS_8equal_toIiEENS_4hashIiEELb1EEEE6secondB7v160006Ev, symObjAddr: 0x5BBC, symBinAddr: 0x100007B6C, symSize: 0x24 }
  - { offsetInCU: 0x16AC0, offset: 0x16AC0, size: 0x8, addend: 0x0, symName: __ZNSt3__122__compressed_pair_elemINS_21__unordered_map_equalIiNS_17__hash_value_typeIiNS_6vectorI6KostkaNS_9allocatorIS4_EEEEEENS_8equal_toIiEENS_4hashIiEELb1EEELi1ELb1EE5__getB7v160006Ev, symObjAddr: 0x5BE0, symBinAddr: 0x100007B90, symSize: 0x14 }
  - { offsetInCU: 0x16AE6, offset: 0x16AE6, size: 0x8, addend: 0x0, symName: __ZNKSt3__18equal_toIiEclB7v160006ERKiS3_, symObjAddr: 0x5BF4, symBinAddr: 0x100007BA4, symSize: 0x34 }
  - { offsetInCU: 0x16B2A, offset: 0x16B2A, size: 0x8, addend: 0x0, symName: __ZNSt3__117__compressed_pairImNS_22__unordered_map_hasherIiNS_17__hash_value_typeIiNS_6vectorI6KostkaNS_9allocatorIS4_EEEEEENS_4hashIiEENS_8equal_toIiEELb1EEEE5firstB7v160006Ev, symObjAddr: 0x5C28, symBinAddr: 0x100007BD8, symSize: 0x24 }
  - { offsetInCU: 0x16B50, offset: 0x16B50, size: 0x8, addend: 0x0, symName: __ZNSt3__117__compressed_pairIfNS_21__unordered_map_equalIiNS_17__hash_value_typeIiNS_6vectorI6KostkaNS_9allocatorIS4_EEEEEENS_8equal_toIiEENS_4hashIiEELb1EEEE5firstB7v160006Ev, symObjAddr: 0x5C4C, symBinAddr: 0x100007BFC, symSize: 0x24 }
  - { offsetInCU: 0x16B76, offset: 0x16B76, size: 0x8, addend: 0x0, symName: __ZNSt3__122__compressed_pair_elemIfLi0ELb0EE5__getB7v160006Ev, symObjAddr: 0x5C70, symBinAddr: 0x100007C20, symSize: 0x14 }
  - { offsetInCU: 0x16B9C, offset: 0x16B9C, size: 0x8, addend: 0x0, symName: __ZNSt3__112__hash_tableINS_17__hash_value_typeIiNS_6vectorI6KostkaNS_9allocatorIS3_EEEEEENS_22__unordered_map_hasherIiS7_NS_4hashIiEENS_8equal_toIiEELb1EEENS_21__unordered_map_equalIiS7_SC_SA_Lb1EEENS4_IS7_EEE8__rehashILb1EEEvm, symObjAddr: 0x5C84, symBinAddr: 0x100007C34, symSize: 0x1A8 }
  - { offsetInCU: 0x16BEC, offset: 0x16BEC, size: 0x8, addend: 0x0, symName: __ZNSt3__112__hash_tableINS_17__hash_value_typeIiNS_6vectorI6KostkaNS_9allocatorIS3_EEEEEENS_22__unordered_map_hasherIiS7_NS_4hashIiEENS_8equal_toIiEELb1EEENS_21__unordered_map_equalIiS7_SC_SA_Lb1EEENS4_IS7_EEE11__do_rehashILb1EEEvm, symObjAddr: 0x5E2C, symBinAddr: 0x100007DDC, symSize: 0x290 }
  - { offsetInCU: 0x16CD3, offset: 0x16CD3, size: 0x8, addend: 0x0, symName: __ZNSt3__110unique_ptrIA_PNS_16__hash_node_baseIPNS_11__hash_nodeINS_17__hash_value_typeIiNS_6vectorI6KostkaNS_9allocatorIS5_EEEEEEPvEEEENS_25__bucket_list_deallocatorINS6_ISE_EEEEE11get_deleterB7v160006Ev, symObjAddr: 0x6138, symBinAddr: 0x1000080E8, symSize: 0x24 }
  - { offsetInCU: 0x16CF9, offset: 0x16CF9, size: 0x8, addend: 0x0, symName: __ZNSt3__110unique_ptrIA_PNS_16__hash_node_baseIPNS_11__hash_nodeINS_17__hash_value_typeIiNS_6vectorI6KostkaNS_9allocatorIS5_EEEEEEPvEEEENS_25__bucket_list_deallocatorINS6_ISE_EEEEE5resetB7v160006IPSE_EENS_9enable_ifIXsr28_CheckArrayPointerConversionIT_EE5valueEvE4typeESN_, symObjAddr: 0x615C, symBinAddr: 0x10000810C, symSize: 0x78 }
  - { offsetInCU: 0x16D46, offset: 0x16D46, size: 0x8, addend: 0x0, symName: __ZNSt3__116allocator_traitsINS_9allocatorIPNS_16__hash_node_baseIPNS_11__hash_nodeINS_17__hash_value_typeIiNS_6vectorI6KostkaNS1_IS6_EEEEEEPvEEEEEEE8allocateB7v160006ERSF_m, symObjAddr: 0x61D4, symBinAddr: 0x100008184, symSize: 0x2C }
  - { offsetInCU: 0x16D79, offset: 0x16D79, size: 0x8, addend: 0x0, symName: __ZNSt3__19allocatorIPNS_16__hash_node_baseIPNS_11__hash_nodeINS_17__hash_value_typeIiNS_6vectorI6KostkaNS0_IS5_EEEEEEPvEEEEE8allocateB7v160006Em, symObjAddr: 0x6200, symBinAddr: 0x1000081B0, symSize: 0x84 }
  - { offsetInCU: 0x16DB7, offset: 0x16DB7, size: 0x8, addend: 0x0, symName: __ZNSt3__116allocator_traitsINS_9allocatorIPNS_16__hash_node_baseIPNS_11__hash_nodeINS_17__hash_value_typeIiNS_6vectorI6KostkaNS1_IS6_EEEEEEPvEEEEEEE8max_sizeB7v160006ISF_vEEmRKSF_, symObjAddr: 0x6284, symBinAddr: 0x100008234, symSize: 0x24 }
  - { offsetInCU: 0x16DE5, offset: 0x16DE5, size: 0x8, addend: 0x0, symName: __ZNKSt3__19allocatorIPNS_16__hash_node_baseIPNS_11__hash_nodeINS_17__hash_value_typeIiNS_6vectorI6KostkaNS0_IS5_EEEEEEPvEEEEE8max_sizeB7v160006Ev, symObjAddr: 0x62A8, symBinAddr: 0x100008258, symSize: 0x14 }
  - { offsetInCU: 0x16E0B, offset: 0x16E0B, size: 0x8, addend: 0x0, symName: __ZNSt3__115__hash_iteratorIPNS_11__hash_nodeINS_17__hash_value_typeIiNS_6vectorI6KostkaNS_9allocatorIS4_EEEEEEPvEEEC2B7v160006EPNS_16__hash_node_baseISB_EEPKv, symObjAddr: 0x62D8, symBinAddr: 0x100008288, symSize: 0x24 }
  - { offsetInCU: 0x16E53, offset: 0x16E53, size: 0x8, addend: 0x0, symName: __ZNSt3__14pairINS_15__hash_iteratorIPNS_11__hash_nodeINS_17__hash_value_typeIiNS_6vectorI6KostkaNS_9allocatorIS5_EEEEEEPvEEEEbEC2B7v160006ERKSD_RKb, symObjAddr: 0x62FC, symBinAddr: 0x1000082AC, symSize: 0x38 }
  - { offsetInCU: 0x16E99, offset: 0x16E99, size: 0x8, addend: 0x0, symName: __ZNSt3__14pairINS_19__hash_map_iteratorINS_15__hash_iteratorIPNS_11__hash_nodeINS_17__hash_value_typeIiNS_6vectorI6KostkaNS_9allocatorIS6_EEEEEEPvEEEEEEbEC2B7v160006ISE_bEERKNS0_IT_T0_EE, symObjAddr: 0x6334, symBinAddr: 0x1000082E4, symSize: 0x50 }
  - { offsetInCU: 0x16EE3, offset: 0x16EE3, size: 0x8, addend: 0x0, symName: __ZNSt3__119__hash_map_iteratorINS_15__hash_iteratorIPNS_11__hash_nodeINS_17__hash_value_typeIiNS_6vectorI6KostkaNS_9allocatorIS5_EEEEEEPvEEEEEC1B7v160006ESD_, symObjAddr: 0x6384, symBinAddr: 0x100008334, symSize: 0x34 }
  - { offsetInCU: 0x16F1C, offset: 0x16F1C, size: 0x8, addend: 0x0, symName: __ZNSt3__119__hash_map_iteratorINS_15__hash_iteratorIPNS_11__hash_nodeINS_17__hash_value_typeIiNS_6vectorI6KostkaNS_9allocatorIS5_EEEEEEPvEEEEEC2B7v160006ESD_, symObjAddr: 0x63B8, symBinAddr: 0x100008368, symSize: 0x20 }
  - { offsetInCU: 0x16F55, offset: 0x16F55, size: 0x8, addend: 0x0, symName: __ZNSt3__117__compressed_pairIPNS_11__hash_nodeINS_17__hash_value_typeIiNS_6vectorI6KostkaNS_9allocatorIS4_EEEEEEPvEENS_26__hash_map_node_destructorINS5_ISA_EEEEE5firstB7v160006Ev, symObjAddr: 0x63D8, symBinAddr: 0x100008388, symSize: 0x24 }
  - { offsetInCU: 0x16F7B, offset: 0x16F7B, size: 0x8, addend: 0x0, symName: __ZNSt3__122__compressed_pair_elemIPNS_11__hash_nodeINS_17__hash_value_typeIiNS_6vectorI6KostkaNS_9allocatorIS4_EEEEEEPvEELi0ELb0EE5__getB7v160006Ev, symObjAddr: 0x63FC, symBinAddr: 0x1000083AC, symSize: 0x14 }
  - { offsetInCU: 0x16FA1, offset: 0x16FA1, size: 0x8, addend: 0x0, symName: __ZNSt3__110unique_ptrINS_11__hash_nodeINS_17__hash_value_typeIiNS_6vectorI6KostkaNS_9allocatorIS4_EEEEEEPvEENS_26__hash_map_node_destructorINS5_ISA_EEEEED2B7v160006Ev, symObjAddr: 0x6410, symBinAddr: 0x1000083C0, symSize: 0x30 }
  - { offsetInCU: 0x16FCB, offset: 0x16FCB, size: 0x8, addend: 0x0, symName: __ZNSt3__110unique_ptrINS_11__hash_nodeINS_17__hash_value_typeIiNS_6vectorI6KostkaNS_9allocatorIS4_EEEEEEPvEENS_26__hash_map_node_destructorINS5_ISA_EEEEE5resetB7v160006EPSA_, symObjAddr: 0x6440, symBinAddr: 0x1000083F0, symSize: 0x78 }
  - { offsetInCU: 0x1700F, offset: 0x1700F, size: 0x8, addend: 0x0, symName: __ZNSt3__126__hash_map_node_destructorINS_9allocatorINS_11__hash_nodeINS_17__hash_value_typeIiNS_6vectorI6KostkaNS1_IS5_EEEEEEPvEEEEEclB7v160006EPSA_, symObjAddr: 0x64B8, symBinAddr: 0x100008468, symSize: 0xE4 }
  - { offsetInCU: 0x17044, offset: 0x17044, size: 0x8, addend: 0x0, symName: __ZNSt3__116allocator_traitsINS_9allocatorINS_11__hash_nodeINS_17__hash_value_typeIiNS_6vectorI6KostkaNS1_IS5_EEEEEEPvEEEEE7destroyB7v160006IS7_vvEEvRSB_PT_, symObjAddr: 0x659C, symBinAddr: 0x10000854C, symSize: 0x28 }
  - { offsetInCU: 0x1707E, offset: 0x1707E, size: 0x8, addend: 0x0, symName: __ZNSt3__116allocator_traitsINS_9allocatorINS_11__hash_nodeINS_17__hash_value_typeIiNS_6vectorI6KostkaNS1_IS5_EEEEEEPvEEEEE7destroyB7v160006IKivvEEvRSB_PT_, symObjAddr: 0x65C4, symBinAddr: 0x100008574, symSize: 0x14 }
  - { offsetInCU: 0x170B8, offset: 0x170B8, size: 0x8, addend: 0x0, symName: __ZNSt3__15stackI5StateNS_5dequeIS1_NS_9allocatorIS1_EEEEEC2B7v160006Ev, symObjAddr: 0x65D8, symBinAddr: 0x100008588, symSize: 0x2C }
  - { offsetInCU: 0x170E2, offset: 0x170E2, size: 0x8, addend: 0x0, symName: __ZNSt3__15dequeI5StateNS_9allocatorIS1_EEEC1B7v160006Ev, symObjAddr: 0x6604, symBinAddr: 0x1000085B4, symSize: 0x2C }
  - { offsetInCU: 0x1710C, offset: 0x1710C, size: 0x8, addend: 0x0, symName: __ZNSt3__15dequeI5StateNS_9allocatorIS1_EEEC2B7v160006Ev, symObjAddr: 0x6630, symBinAddr: 0x1000085E0, symSize: 0x78 }
  - { offsetInCU: 0x17136, offset: 0x17136, size: 0x8, addend: 0x0, symName: __ZNSt3__114__split_bufferIP5StateNS_9allocatorIS2_EEEC1Ev, symObjAddr: 0x66A8, symBinAddr: 0x100008658, symSize: 0x2C }
  - { offsetInCU: 0x17162, offset: 0x17162, size: 0x8, addend: 0x0, symName: __ZNSt3__117__compressed_pairImNS_9allocatorI5StateEEEC1B7v160006IiNS_18__default_init_tagEEEOT_OT0_, symObjAddr: 0x66D4, symBinAddr: 0x100008684, symSize: 0x3C }
  - { offsetInCU: 0x171BA, offset: 0x171BA, size: 0x8, addend: 0x0, symName: __ZNSt3__114__split_bufferIP5StateNS_9allocatorIS2_EEEC2Ev, symObjAddr: 0x6710, symBinAddr: 0x1000086C0, symSize: 0x48 }
  - { offsetInCU: 0x171E6, offset: 0x171E6, size: 0x8, addend: 0x0, symName: __ZNSt3__117__compressed_pairIPP5StateNS_9allocatorIS2_EEEC1B7v160006IDnNS_18__default_init_tagEEEOT_OT0_, symObjAddr: 0x6758, symBinAddr: 0x100008708, symSize: 0x3C }
  - { offsetInCU: 0x1723E, offset: 0x1723E, size: 0x8, addend: 0x0, symName: __ZNSt3__117__compressed_pairIPP5StateNS_9allocatorIS2_EEEC2B7v160006IDnNS_18__default_init_tagEEEOT_OT0_, symObjAddr: 0x6794, symBinAddr: 0x100008744, symSize: 0x40 }
  - { offsetInCU: 0x17296, offset: 0x17296, size: 0x8, addend: 0x0, symName: __ZNSt3__122__compressed_pair_elemIPP5StateLi0ELb0EEC2B7v160006IDnvEEOT_, symObjAddr: 0x67D4, symBinAddr: 0x100008784, symSize: 0x1C }
  - { offsetInCU: 0x172D8, offset: 0x172D8, size: 0x8, addend: 0x0, symName: __ZNSt3__122__compressed_pair_elemINS_9allocatorIP5StateEELi1ELb1EEC2B7v160006ENS_18__default_init_tagE, symObjAddr: 0x67F0, symBinAddr: 0x1000087A0, symSize: 0x2C }
  - { offsetInCU: 0x1730C, offset: 0x1730C, size: 0x8, addend: 0x0, symName: __ZNSt3__19allocatorIP5StateEC2B7v160006Ev, symObjAddr: 0x681C, symBinAddr: 0x1000087CC, symSize: 0x2C }
  - { offsetInCU: 0x17336, offset: 0x17336, size: 0x8, addend: 0x0, symName: __ZNSt3__116__non_trivial_ifILb1ENS_9allocatorIP5StateEEEC2B7v160006Ev, symObjAddr: 0x6848, symBinAddr: 0x1000087F8, symSize: 0x14 }
  - { offsetInCU: 0x17360, offset: 0x17360, size: 0x8, addend: 0x0, symName: __ZNSt3__117__compressed_pairImNS_9allocatorI5StateEEEC2B7v160006IiNS_18__default_init_tagEEEOT_OT0_, symObjAddr: 0x685C, symBinAddr: 0x10000880C, symSize: 0x40 }
  - { offsetInCU: 0x173B8, offset: 0x173B8, size: 0x8, addend: 0x0, symName: __ZNSt3__122__compressed_pair_elemINS_9allocatorI5StateEELi1ELb1EEC2B7v160006ENS_18__default_init_tagE, symObjAddr: 0x689C, symBinAddr: 0x10000884C, symSize: 0x2C }
  - { offsetInCU: 0x173EC, offset: 0x173EC, size: 0x8, addend: 0x0, symName: __ZNSt3__19allocatorI5StateEC2B7v160006Ev, symObjAddr: 0x68C8, symBinAddr: 0x100008878, symSize: 0x2C }
  - { offsetInCU: 0x17416, offset: 0x17416, size: 0x8, addend: 0x0, symName: __ZNSt3__116__non_trivial_ifILb1ENS_9allocatorI5StateEEEC2B7v160006Ev, symObjAddr: 0x68F4, symBinAddr: 0x1000088A4, symSize: 0x14 }
  - { offsetInCU: 0x17440, offset: 0x17440, size: 0x8, addend: 0x0, symName: __ZNSt3__113unordered_mapIiNS_6vectorI6KostkaNS_9allocatorIS2_EEEENS_4hashIiEENS_8equal_toIiEENS3_INS_4pairIKiS5_EEEEEC2ERKSE_, symObjAddr: 0x6908, symBinAddr: 0x1000088B8, symSize: 0xB0 }
  - { offsetInCU: 0x1747B, offset: 0x1747B, size: 0x8, addend: 0x0, symName: __ZNSt3__112__hash_tableINS_17__hash_value_typeIiNS_6vectorI6KostkaNS_9allocatorIS3_EEEEEENS_22__unordered_map_hasherIiS7_NS_4hashIiEENS_8equal_toIiEELb1EEENS_21__unordered_map_equalIiS7_SC_SA_Lb1EEENS4_IS7_EEEC1ERKSH_, symObjAddr: 0x69B8, symBinAddr: 0x100008968, symSize: 0x34 }
  - { offsetInCU: 0x174B6, offset: 0x174B6, size: 0x8, addend: 0x0, symName: __ZNKSt3__113unordered_mapIiNS_6vectorI6KostkaNS_9allocatorIS2_EEEENS_4hashIiEENS_8equal_toIiEENS3_INS_4pairIKiS5_EEEEE12bucket_countB7v160006Ev, symObjAddr: 0x69EC, symBinAddr: 0x10000899C, symSize: 0x24 }
  - { offsetInCU: 0x174DC, offset: 0x174DC, size: 0x8, addend: 0x0, symName: __ZNSt3__113unordered_mapIiNS_6vectorI6KostkaNS_9allocatorIS2_EEEENS_4hashIiEENS_8equal_toIiEENS3_INS_4pairIKiS5_EEEEE6insertINS_25__hash_map_const_iteratorINS_21__hash_const_iteratorIPNS_11__hash_nodeINS_17__hash_value_typeIiS5_EEPvEEEEEEEEvT_SQ_, symObjAddr: 0x6A10, symBinAddr: 0x1000089C0, symSize: 0x70 }
  - { offsetInCU: 0x1752B, offset: 0x1752B, size: 0x8, addend: 0x0, symName: __ZNKSt3__113unordered_mapIiNS_6vectorI6KostkaNS_9allocatorIS2_EEEENS_4hashIiEENS_8equal_toIiEENS3_INS_4pairIKiS5_EEEEE5beginB7v160006Ev, symObjAddr: 0x6A80, symBinAddr: 0x100008A30, symSize: 0x38 }
  - { offsetInCU: 0x17551, offset: 0x17551, size: 0x8, addend: 0x0, symName: __ZNKSt3__113unordered_mapIiNS_6vectorI6KostkaNS_9allocatorIS2_EEEENS_4hashIiEENS_8equal_toIiEENS3_INS_4pairIKiS5_EEEEE3endB7v160006Ev, symObjAddr: 0x6AB8, symBinAddr: 0x100008A68, symSize: 0x38 }
  - { offsetInCU: 0x17577, offset: 0x17577, size: 0x8, addend: 0x0, symName: __ZNSt3__112__hash_tableINS_17__hash_value_typeIiNS_6vectorI6KostkaNS_9allocatorIS3_EEEEEENS_22__unordered_map_hasherIiS7_NS_4hashIiEENS_8equal_toIiEELb1EEENS_21__unordered_map_equalIiS7_SC_SA_Lb1EEENS4_IS7_EEEC2ERKSH_, symObjAddr: 0x6AF0, symBinAddr: 0x100008AA0, symSize: 0xF4 }
  - { offsetInCU: 0x175B2, offset: 0x175B2, size: 0x8, addend: 0x0, symName: __ZNSt3__116allocator_traitsINS_9allocatorIPNS_16__hash_node_baseIPNS_11__hash_nodeINS_17__hash_value_typeIiNS_6vectorI6KostkaNS1_IS6_EEEEEEPvEEEEEEE37select_on_container_copy_constructionB7v160006ISF_vvEESF_RKSF_, symObjAddr: 0x6BE4, symBinAddr: 0x100008B94, symSize: 0x10 }
  - { offsetInCU: 0x175E1, offset: 0x175E1, size: 0x8, addend: 0x0, symName: __ZNKSt3__125__bucket_list_deallocatorINS_9allocatorIPNS_16__hash_node_baseIPNS_11__hash_nodeINS_17__hash_value_typeIiNS_6vectorI6KostkaNS1_IS6_EEEEEEPvEEEEEEE7__allocB7v160006Ev, symObjAddr: 0x6BF4, symBinAddr: 0x100008BA4, symSize: 0x24 }
  - { offsetInCU: 0x17607, offset: 0x17607, size: 0x8, addend: 0x0, symName: __ZNSt3__125__bucket_list_deallocatorINS_9allocatorIPNS_16__hash_node_baseIPNS_11__hash_nodeINS_17__hash_value_typeIiNS_6vectorI6KostkaNS1_IS6_EEEEEEPvEEEEEEEC1B7v160006ERKSF_m, symObjAddr: 0x6C18, symBinAddr: 0x100008BC8, symSize: 0x3C }
  - { offsetInCU: 0x1764F, offset: 0x1764F, size: 0x8, addend: 0x0, symName: __ZNSt3__110unique_ptrIA_PNS_16__hash_node_baseIPNS_11__hash_nodeINS_17__hash_value_typeIiNS_6vectorI6KostkaNS_9allocatorIS5_EEEEEEPvEEEENS_25__bucket_list_deallocatorINS6_ISE_EEEEEC1B7v160006ILb1EvEEDnNS_16__dependent_typeINS_27__unique_ptr_deleter_sfinaeISI_EEXT_EE20__good_rval_ref_typeE, symObjAddr: 0x6C54, symBinAddr: 0x100008C04, symSize: 0x3C }
  - { offsetInCU: 0x1769E, offset: 0x1769E, size: 0x8, addend: 0x0, symName: __ZNSt3__116allocator_traitsINS_9allocatorINS_11__hash_nodeINS_17__hash_value_typeIiNS_6vectorI6KostkaNS1_IS5_EEEEEEPvEEEEE37select_on_container_copy_constructionB7v160006ISB_vvEESB_RKSB_, symObjAddr: 0x6C90, symBinAddr: 0x100008C40, symSize: 0x10 }
  - { offsetInCU: 0x176CD, offset: 0x176CD, size: 0x8, addend: 0x0, symName: __ZNKSt3__112__hash_tableINS_17__hash_value_typeIiNS_6vectorI6KostkaNS_9allocatorIS3_EEEEEENS_22__unordered_map_hasherIiS7_NS_4hashIiEENS_8equal_toIiEELb1EEENS_21__unordered_map_equalIiS7_SC_SA_Lb1EEENS4_IS7_EEE12__node_allocB7v160006Ev, symObjAddr: 0x6CA0, symBinAddr: 0x100008C50, symSize: 0x28 }
  - { offsetInCU: 0x176F9, offset: 0x176F9, size: 0x8, addend: 0x0, symName: __ZNSt3__117__compressed_pairINS_16__hash_node_baseIPNS_11__hash_nodeINS_17__hash_value_typeIiNS_6vectorI6KostkaNS_9allocatorIS5_EEEEEEPvEEEENS6_ISB_EEEC1B7v160006INS_18__default_init_tagESE_EEOT_OT0_, symObjAddr: 0x6CC8, symBinAddr: 0x100008C78, symSize: 0x3C }
  - { offsetInCU: 0x17751, offset: 0x17751, size: 0x8, addend: 0x0, symName: __ZNKSt3__112__hash_tableINS_17__hash_value_typeIiNS_6vectorI6KostkaNS_9allocatorIS3_EEEEEENS_22__unordered_map_hasherIiS7_NS_4hashIiEENS_8equal_toIiEELb1EEENS_21__unordered_map_equalIiS7_SC_SA_Lb1EEENS4_IS7_EEE13hash_functionB7v160006Ev, symObjAddr: 0x6D04, symBinAddr: 0x100008CB4, symSize: 0x28 }
  - { offsetInCU: 0x17777, offset: 0x17777, size: 0x8, addend: 0x0, symName: __ZNSt3__117__compressed_pairImNS_22__unordered_map_hasherIiNS_17__hash_value_typeIiNS_6vectorI6KostkaNS_9allocatorIS4_EEEEEENS_4hashIiEENS_8equal_toIiEELb1EEEEC1B7v160006IiRKSD_EEOT_OT0_, symObjAddr: 0x6D2C, symBinAddr: 0x100008CDC, symSize: 0x3C }
  - { offsetInCU: 0x177CF, offset: 0x177CF, size: 0x8, addend: 0x0, symName: __ZNKSt3__117__compressed_pairImNS_9allocatorIPNS_16__hash_node_baseIPNS_11__hash_nodeINS_17__hash_value_typeIiNS_6vectorI6KostkaNS1_IS6_EEEEEEPvEEEEEEE6secondB7v160006Ev, symObjAddr: 0x6D68, symBinAddr: 0x100008D18, symSize: 0x24 }
  - { offsetInCU: 0x177F5, offset: 0x177F5, size: 0x8, addend: 0x0, symName: __ZNKSt3__122__compressed_pair_elemINS_9allocatorIPNS_16__hash_node_baseIPNS_11__hash_nodeINS_17__hash_value_typeIiNS_6vectorI6KostkaNS1_IS6_EEEEEEPvEEEEEELi1ELb1EE5__getB7v160006Ev, symObjAddr: 0x6D8C, symBinAddr: 0x100008D3C, symSize: 0x14 }
  - { offsetInCU: 0x1781B, offset: 0x1781B, size: 0x8, addend: 0x0, symName: __ZNSt3__125__bucket_list_deallocatorINS_9allocatorIPNS_16__hash_node_baseIPNS_11__hash_nodeINS_17__hash_value_typeIiNS_6vectorI6KostkaNS1_IS6_EEEEEEPvEEEEEEEC2B7v160006ERKSF_m, symObjAddr: 0x6DA0, symBinAddr: 0x100008D50, symSize: 0x3C }
  - { offsetInCU: 0x17863, offset: 0x17863, size: 0x8, addend: 0x0, symName: __ZNSt3__117__compressed_pairImNS_9allocatorIPNS_16__hash_node_baseIPNS_11__hash_nodeINS_17__hash_value_typeIiNS_6vectorI6KostkaNS1_IS6_EEEEEEPvEEEEEEEC1B7v160006IRmRKSF_EEOT_OT0_, symObjAddr: 0x6DDC, symBinAddr: 0x100008D8C, symSize: 0x3C }
  - { offsetInCU: 0x178BB, offset: 0x178BB, size: 0x8, addend: 0x0, symName: __ZNSt3__117__compressed_pairImNS_9allocatorIPNS_16__hash_node_baseIPNS_11__hash_nodeINS_17__hash_value_typeIiNS_6vectorI6KostkaNS1_IS6_EEEEEEPvEEEEEEEC2B7v160006IRmRKSF_EEOT_OT0_, symObjAddr: 0x6E18, symBinAddr: 0x100008DC8, symSize: 0x44 }
  - { offsetInCU: 0x17913, offset: 0x17913, size: 0x8, addend: 0x0, symName: __ZNSt3__122__compressed_pair_elemImLi0ELb0EEC2B7v160006IRmvEEOT_, symObjAddr: 0x6E5C, symBinAddr: 0x100008E0C, symSize: 0x24 }
  - { offsetInCU: 0x17955, offset: 0x17955, size: 0x8, addend: 0x0, symName: __ZNSt3__122__compressed_pair_elemINS_9allocatorIPNS_16__hash_node_baseIPNS_11__hash_nodeINS_17__hash_value_typeIiNS_6vectorI6KostkaNS1_IS6_EEEEEEPvEEEEEELi1ELb1EEC2B7v160006IRKSF_vEEOT_, symObjAddr: 0x6E80, symBinAddr: 0x100008E30, symSize: 0x18 }
  - { offsetInCU: 0x17997, offset: 0x17997, size: 0x8, addend: 0x0, symName: __ZNSt3__110unique_ptrIA_PNS_16__hash_node_baseIPNS_11__hash_nodeINS_17__hash_value_typeIiNS_6vectorI6KostkaNS_9allocatorIS5_EEEEEEPvEEEENS_25__bucket_list_deallocatorINS6_ISE_EEEEEC2B7v160006ILb1EvEEDnNS_16__dependent_typeINS_27__unique_ptr_deleter_sfinaeISI_EEXT_EE20__good_rval_ref_typeE, symObjAddr: 0x6E98, symBinAddr: 0x100008E48, symSize: 0x5C }
  - { offsetInCU: 0x179E6, offset: 0x179E6, size: 0x8, addend: 0x0, symName: __ZNSt3__117__compressed_pairIPPNS_16__hash_node_baseIPNS_11__hash_nodeINS_17__hash_value_typeIiNS_6vectorI6KostkaNS_9allocatorIS5_EEEEEEPvEEEENS_25__bucket_list_deallocatorINS6_ISE_EEEEEC1B7v160006IDnSI_EEOT_OT0_, symObjAddr: 0x6EF4, symBinAddr: 0x100008EA4, symSize: 0x3C }
  - { offsetInCU: 0x17A3E, offset: 0x17A3E, size: 0x8, addend: 0x0, symName: __ZNSt3__117__compressed_pairIPPNS_16__hash_node_baseIPNS_11__hash_nodeINS_17__hash_value_typeIiNS_6vectorI6KostkaNS_9allocatorIS5_EEEEEEPvEEEENS_25__bucket_list_deallocatorINS6_ISE_EEEEEC2B7v160006IDnSI_EEOT_OT0_, symObjAddr: 0x6F30, symBinAddr: 0x100008EE0, symSize: 0x48 }
  - { offsetInCU: 0x17A96, offset: 0x17A96, size: 0x8, addend: 0x0, symName: __ZNSt3__122__compressed_pair_elemIPPNS_16__hash_node_baseIPNS_11__hash_nodeINS_17__hash_value_typeIiNS_6vectorI6KostkaNS_9allocatorIS5_EEEEEEPvEEEELi0ELb0EEC2B7v160006IDnvEEOT_, symObjAddr: 0x6F78, symBinAddr: 0x100008F28, symSize: 0x1C }
  - { offsetInCU: 0x17AD8, offset: 0x17AD8, size: 0x8, addend: 0x0, symName: __ZNSt3__122__compressed_pair_elemINS_25__bucket_list_deallocatorINS_9allocatorIPNS_16__hash_node_baseIPNS_11__hash_nodeINS_17__hash_value_typeIiNS_6vectorI6KostkaNS2_IS7_EEEEEEPvEEEEEEEELi1ELb0EEC2B7v160006ISH_vEEOT_, symObjAddr: 0x6F94, symBinAddr: 0x100008F44, symSize: 0x34 }
  - { offsetInCU: 0x17B1A, offset: 0x17B1A, size: 0x8, addend: 0x0, symName: __ZNSt3__125__bucket_list_deallocatorINS_9allocatorIPNS_16__hash_node_baseIPNS_11__hash_nodeINS_17__hash_value_typeIiNS_6vectorI6KostkaNS1_IS6_EEEEEEPvEEEEEEEC1B7v160006EOSG_, symObjAddr: 0x6FC8, symBinAddr: 0x100008F78, symSize: 0x34 }
  - { offsetInCU: 0x17B53, offset: 0x17B53, size: 0x8, addend: 0x0, symName: __ZNSt3__125__bucket_list_deallocatorINS_9allocatorIPNS_16__hash_node_baseIPNS_11__hash_nodeINS_17__hash_value_typeIiNS_6vectorI6KostkaNS1_IS6_EEEEEEPvEEEEEEEC2B7v160006EOSG_, symObjAddr: 0x6FFC, symBinAddr: 0x100008FAC, symSize: 0x48 }
  - { offsetInCU: 0x17B8C, offset: 0x17B8C, size: 0x8, addend: 0x0, symName: __ZNKSt3__117__compressed_pairINS_16__hash_node_baseIPNS_11__hash_nodeINS_17__hash_value_typeIiNS_6vectorI6KostkaNS_9allocatorIS5_EEEEEEPvEEEENS6_ISB_EEE6secondB7v160006Ev, symObjAddr: 0x7044, symBinAddr: 0x100008FF4, symSize: 0x24 }
  - { offsetInCU: 0x17BB2, offset: 0x17BB2, size: 0x8, addend: 0x0, symName: __ZNKSt3__122__compressed_pair_elemINS_9allocatorINS_11__hash_nodeINS_17__hash_value_typeIiNS_6vectorI6KostkaNS1_IS5_EEEEEEPvEEEELi1ELb1EE5__getB7v160006Ev, symObjAddr: 0x7068, symBinAddr: 0x100009018, symSize: 0x14 }
  - { offsetInCU: 0x17BD8, offset: 0x17BD8, size: 0x8, addend: 0x0, symName: __ZNSt3__117__compressed_pairINS_16__hash_node_baseIPNS_11__hash_nodeINS_17__hash_value_typeIiNS_6vectorI6KostkaNS_9allocatorIS5_EEEEEEPvEEEENS6_ISB_EEEC2B7v160006INS_18__default_init_tagESE_EEOT_OT0_, symObjAddr: 0x707C, symBinAddr: 0x10000902C, symSize: 0x40 }
  - { offsetInCU: 0x17C30, offset: 0x17C30, size: 0x8, addend: 0x0, symName: __ZNSt3__122__compressed_pair_elemINS_16__hash_node_baseIPNS_11__hash_nodeINS_17__hash_value_typeIiNS_6vectorI6KostkaNS_9allocatorIS5_EEEEEEPvEEEELi0ELb0EEC2B7v160006ENS_18__default_init_tagE, symObjAddr: 0x70BC, symBinAddr: 0x10000906C, symSize: 0x2C }
  - { offsetInCU: 0x17C64, offset: 0x17C64, size: 0x8, addend: 0x0, symName: __ZNSt3__122__compressed_pair_elemINS_9allocatorINS_11__hash_nodeINS_17__hash_value_typeIiNS_6vectorI6KostkaNS1_IS5_EEEEEEPvEEEELi1ELb1EEC2B7v160006ISB_vEEOT_, symObjAddr: 0x70E8, symBinAddr: 0x100009098, symSize: 0x18 }
  - { offsetInCU: 0x17CA6, offset: 0x17CA6, size: 0x8, addend: 0x0, symName: __ZNKSt3__117__compressed_pairImNS_22__unordered_map_hasherIiNS_17__hash_value_typeIiNS_6vectorI6KostkaNS_9allocatorIS4_EEEEEENS_4hashIiEENS_8equal_toIiEELb1EEEE6secondB7v160006Ev, symObjAddr: 0x7100, symBinAddr: 0x1000090B0, symSize: 0x24 }
  - { offsetInCU: 0x17CCC, offset: 0x17CCC, size: 0x8, addend: 0x0, symName: __ZNKSt3__122__compressed_pair_elemINS_22__unordered_map_hasherIiNS_17__hash_value_typeIiNS_6vectorI6KostkaNS_9allocatorIS4_EEEEEENS_4hashIiEENS_8equal_toIiEELb1EEELi1ELb1EE5__getB7v160006Ev, symObjAddr: 0x7124, symBinAddr: 0x1000090D4, symSize: 0x14 }
  - { offsetInCU: 0x17CF2, offset: 0x17CF2, size: 0x8, addend: 0x0, symName: __ZNSt3__117__compressed_pairImNS_22__unordered_map_hasherIiNS_17__hash_value_typeIiNS_6vectorI6KostkaNS_9allocatorIS4_EEEEEENS_4hashIiEENS_8equal_toIiEELb1EEEEC2B7v160006IiRKSD_EEOT_OT0_, symObjAddr: 0x7138, symBinAddr: 0x1000090E8, symSize: 0x44 }
  - { offsetInCU: 0x17D4A, offset: 0x17D4A, size: 0x8, addend: 0x0, symName: __ZNSt3__122__compressed_pair_elemINS_22__unordered_map_hasherIiNS_17__hash_value_typeIiNS_6vectorI6KostkaNS_9allocatorIS4_EEEEEENS_4hashIiEENS_8equal_toIiEELb1EEELi1ELb1EEC2B7v160006IRKSD_vEEOT_, symObjAddr: 0x717C, symBinAddr: 0x10000912C, symSize: 0x18 }
  - { offsetInCU: 0x17D8C, offset: 0x17D8C, size: 0x8, addend: 0x0, symName: __ZNSt3__112__hash_tableINS_17__hash_value_typeIiNS_6vectorI6KostkaNS_9allocatorIS3_EEEEEENS_22__unordered_map_hasherIiS7_NS_4hashIiEENS_8equal_toIiEELb1EEENS_21__unordered_map_equalIiS7_SC_SA_Lb1EEENS4_IS7_EEE15__insert_uniqueB7v160006ERKNS_4pairIKiS6_EE, symObjAddr: 0x71C4, symBinAddr: 0x100009174, symSize: 0x50 }
  - { offsetInCU: 0x17DC1, offset: 0x17DC1, size: 0x8, addend: 0x0, symName: __ZNKSt3__125__hash_map_const_iteratorINS_21__hash_const_iteratorIPNS_11__hash_nodeINS_17__hash_value_typeIiNS_6vectorI6KostkaNS_9allocatorIS5_EEEEEEPvEEEEEdeB7v160006Ev, symObjAddr: 0x7214, symBinAddr: 0x1000091C4, symSize: 0x28 }
  - { offsetInCU: 0x17DE7, offset: 0x17DE7, size: 0x8, addend: 0x0, symName: __ZNSt3__125__hash_map_const_iteratorINS_21__hash_const_iteratorIPNS_11__hash_nodeINS_17__hash_value_typeIiNS_6vectorI6KostkaNS_9allocatorIS5_EEEEEEPvEEEEEppB7v160006Ev, symObjAddr: 0x723C, symBinAddr: 0x1000091EC, symSize: 0x2C }
  - { offsetInCU: 0x17E0D, offset: 0x17E0D, size: 0x8, addend: 0x0, symName: __ZNSt3__112__hash_tableINS_17__hash_value_typeIiNS_6vectorI6KostkaNS_9allocatorIS3_EEEEEENS_22__unordered_map_hasherIiS7_NS_4hashIiEENS_8equal_toIiEELb1EEENS_21__unordered_map_equalIiS7_SC_SA_Lb1EEENS4_IS7_EEE25__emplace_unique_key_argsIiJRKNS_4pairIKiS6_EEEEENSJ_INS_15__hash_iteratorIPNS_11__hash_nodeIS7_PvEEEEbEERKT_DpOT0_, symObjAddr: 0x72CC, symBinAddr: 0x10000927C, symSize: 0x490 }
  - { offsetInCU: 0x17EED, offset: 0x17EED, size: 0x8, addend: 0x0, symName: __ZNSt3__122__hash_key_value_typesINS_17__hash_value_typeIiNS_6vectorI6KostkaNS_9allocatorIS3_EEEEEEE9__get_keyB7v160006ERKNS_4pairIKiS6_EE, symObjAddr: 0x775C, symBinAddr: 0x10000970C, symSize: 0x14 }
  - { offsetInCU: 0x17F10, offset: 0x17F10, size: 0x8, addend: 0x0, symName: __ZNKSt3__122__unordered_map_hasherIiNS_17__hash_value_typeIiNS_6vectorI6KostkaNS_9allocatorIS3_EEEEEENS_4hashIiEENS_8equal_toIiEELb1EEclB7v160006ERKi, symObjAddr: 0x7770, symBinAddr: 0x100009720, symSize: 0x30 }
  - { offsetInCU: 0x17F45, offset: 0x17F45, size: 0x8, addend: 0x0, symName: __ZNKSt3__121__unordered_map_equalIiNS_17__hash_value_typeIiNS_6vectorI6KostkaNS_9allocatorIS3_EEEEEENS_8equal_toIiEENS_4hashIiEELb1EEclB7v160006ERKS7_RKi, symObjAddr: 0x77A0, symBinAddr: 0x100009750, symSize: 0x48 }
  - { offsetInCU: 0x17F89, offset: 0x17F89, size: 0x8, addend: 0x0, symName: __ZNSt3__112__hash_tableINS_17__hash_value_typeIiNS_6vectorI6KostkaNS_9allocatorIS3_EEEEEENS_22__unordered_map_hasherIiS7_NS_4hashIiEENS_8equal_toIiEELb1EEENS_21__unordered_map_equalIiS7_SC_SA_Lb1EEENS4_IS7_EEE21__construct_node_hashIRKNS_4pairIKiS6_EEJEEENS_10unique_ptrINS_11__hash_nodeIS7_PvEENS_22__hash_node_destructorINS4_ISR_EEEEEEmOT_DpOT0_, symObjAddr: 0x77E8, symBinAddr: 0x100009798, symSize: 0x148 }
  - { offsetInCU: 0x17FFC, offset: 0x17FFC, size: 0x8, addend: 0x0, symName: __ZNKSt3__110unique_ptrINS_11__hash_nodeINS_17__hash_value_typeIiNS_6vectorI6KostkaNS_9allocatorIS4_EEEEEEPvEENS_22__hash_node_destructorINS5_ISA_EEEEEptB7v160006Ev, symObjAddr: 0x7930, symBinAddr: 0x1000098E0, symSize: 0x28 }
  - { offsetInCU: 0x18022, offset: 0x18022, size: 0x8, addend: 0x0, symName: __ZNKSt3__110unique_ptrINS_11__hash_nodeINS_17__hash_value_typeIiNS_6vectorI6KostkaNS_9allocatorIS4_EEEEEEPvEENS_22__hash_node_destructorINS5_ISA_EEEEE3getB7v160006Ev, symObjAddr: 0x7958, symBinAddr: 0x100009908, symSize: 0x28 }
  - { offsetInCU: 0x18048, offset: 0x18048, size: 0x8, addend: 0x0, symName: __ZNSt3__110unique_ptrINS_11__hash_nodeINS_17__hash_value_typeIiNS_6vectorI6KostkaNS_9allocatorIS4_EEEEEEPvEENS_22__hash_node_destructorINS5_ISA_EEEEE7releaseB7v160006Ev, symObjAddr: 0x7980, symBinAddr: 0x100009930, symSize: 0x44 }
  - { offsetInCU: 0x1807D, offset: 0x1807D, size: 0x8, addend: 0x0, symName: __ZNSt3__110unique_ptrINS_11__hash_nodeINS_17__hash_value_typeIiNS_6vectorI6KostkaNS_9allocatorIS4_EEEEEEPvEENS_22__hash_node_destructorINS5_ISA_EEEEED1B7v160006Ev, symObjAddr: 0x79C4, symBinAddr: 0x100009974, symSize: 0x2C }
  - { offsetInCU: 0x180A7, offset: 0x180A7, size: 0x8, addend: 0x0, symName: __ZNSt3__122__hash_node_destructorINS_9allocatorINS_11__hash_nodeINS_17__hash_value_typeIiNS_6vectorI6KostkaNS1_IS5_EEEEEEPvEEEEEC1B7v160006ERSB_b, symObjAddr: 0x79F0, symBinAddr: 0x1000099A0, symSize: 0x48 }
  - { offsetInCU: 0x180F5, offset: 0x180F5, size: 0x8, addend: 0x0, symName: __ZNSt3__110unique_ptrINS_11__hash_nodeINS_17__hash_value_typeIiNS_6vectorI6KostkaNS_9allocatorIS4_EEEEEEPvEENS_22__hash_node_destructorINS5_ISA_EEEEEC1B7v160006ILb1EvEEPSA_NS_16__dependent_typeINS_27__unique_ptr_deleter_sfinaeISD_EEXT_EE20__good_rval_ref_typeE, symObjAddr: 0x7A38, symBinAddr: 0x1000099E8, symSize: 0x3C }
  - { offsetInCU: 0x18146, offset: 0x18146, size: 0x8, addend: 0x0, symName: __ZNSt3__116allocator_traitsINS_9allocatorINS_11__hash_nodeINS_17__hash_value_typeIiNS_6vectorI6KostkaNS1_IS5_EEEEEEPvEEEEE9constructB7v160006INS_4pairIKiS7_EEJRKSG_EvEEvRSB_PT_DpOT0_, symObjAddr: 0x7A74, symBinAddr: 0x100009A24, symSize: 0x34 }
  - { offsetInCU: 0x1819D, offset: 0x1819D, size: 0x8, addend: 0x0, symName: __ZNSt3__110unique_ptrINS_11__hash_nodeINS_17__hash_value_typeIiNS_6vectorI6KostkaNS_9allocatorIS4_EEEEEEPvEENS_22__hash_node_destructorINS5_ISA_EEEEE11get_deleterB7v160006Ev, symObjAddr: 0x7AA8, symBinAddr: 0x100009A58, symSize: 0x24 }
  - { offsetInCU: 0x181C3, offset: 0x181C3, size: 0x8, addend: 0x0, symName: __ZNSt3__122__hash_node_destructorINS_9allocatorINS_11__hash_nodeINS_17__hash_value_typeIiNS_6vectorI6KostkaNS1_IS5_EEEEEEPvEEEEEC2B7v160006ERSB_b, symObjAddr: 0x7ACC, symBinAddr: 0x100009A7C, symSize: 0x38 }
  - { offsetInCU: 0x1820B, offset: 0x1820B, size: 0x8, addend: 0x0, symName: __ZNSt3__110unique_ptrINS_11__hash_nodeINS_17__hash_value_typeIiNS_6vectorI6KostkaNS_9allocatorIS4_EEEEEEPvEENS_22__hash_node_destructorINS5_ISA_EEEEEC2B7v160006ILb1EvEEPSA_NS_16__dependent_typeINS_27__unique_ptr_deleter_sfinaeISD_EEXT_EE20__good_rval_ref_typeE, symObjAddr: 0x7B04, symBinAddr: 0x100009AB4, symSize: 0x5C }
  - { offsetInCU: 0x1825C, offset: 0x1825C, size: 0x8, addend: 0x0, symName: __ZNSt3__117__compressed_pairIPNS_11__hash_nodeINS_17__hash_value_typeIiNS_6vectorI6KostkaNS_9allocatorIS4_EEEEEEPvEENS_22__hash_node_destructorINS5_ISA_EEEEEC1B7v160006IRSB_SE_EEOT_OT0_, symObjAddr: 0x7B60, symBinAddr: 0x100009B10, symSize: 0x3C }
  - { offsetInCU: 0x182B4, offset: 0x182B4, size: 0x8, addend: 0x0, symName: __ZNSt3__117__compressed_pairIPNS_11__hash_nodeINS_17__hash_value_typeIiNS_6vectorI6KostkaNS_9allocatorIS4_EEEEEEPvEENS_22__hash_node_destructorINS5_ISA_EEEEEC2B7v160006IRSB_SE_EEOT_OT0_, symObjAddr: 0x7B9C, symBinAddr: 0x100009B4C, symSize: 0x48 }
  - { offsetInCU: 0x1830C, offset: 0x1830C, size: 0x8, addend: 0x0, symName: __ZNSt3__122__compressed_pair_elemINS_22__hash_node_destructorINS_9allocatorINS_11__hash_nodeINS_17__hash_value_typeIiNS_6vectorI6KostkaNS2_IS6_EEEEEEPvEEEEEELi1ELb0EEC2B7v160006ISD_vEEOT_, symObjAddr: 0x7BE4, symBinAddr: 0x100009B94, symSize: 0x24 }
  - { offsetInCU: 0x1834E, offset: 0x1834E, size: 0x8, addend: 0x0, symName: __ZNSt3__19allocatorINS_11__hash_nodeINS_17__hash_value_typeIiNS_6vectorI6KostkaNS0_IS4_EEEEEEPvEEE9constructB7v160006INS_4pairIKiS6_EEJRKSE_EEEvPT_DpOT0_, symObjAddr: 0x7C08, symBinAddr: 0x100009BB8, symSize: 0x30 }
  - { offsetInCU: 0x183A4, offset: 0x183A4, size: 0x8, addend: 0x0, symName: __ZNSt3__14pairIKiNS_6vectorI6KostkaNS_9allocatorIS3_EEEEEC1ERKS7_, symObjAddr: 0x7C38, symBinAddr: 0x100009BE8, symSize: 0x34 }
  - { offsetInCU: 0x183D8, offset: 0x183D8, size: 0x8, addend: 0x0, symName: __ZNSt3__14pairIKiNS_6vectorI6KostkaNS_9allocatorIS3_EEEEEC2ERKS7_, symObjAddr: 0x7C6C, symBinAddr: 0x100009C1C, symSize: 0x48 }
  - { offsetInCU: 0x1840C, offset: 0x1840C, size: 0x8, addend: 0x0, symName: __ZNSt3__117__compressed_pairIPNS_11__hash_nodeINS_17__hash_value_typeIiNS_6vectorI6KostkaNS_9allocatorIS4_EEEEEEPvEENS_22__hash_node_destructorINS5_ISA_EEEEE6secondB7v160006Ev, symObjAddr: 0x7CB4, symBinAddr: 0x100009C64, symSize: 0x28 }
  - { offsetInCU: 0x18432, offset: 0x18432, size: 0x8, addend: 0x0, symName: __ZNSt3__122__compressed_pair_elemINS_22__hash_node_destructorINS_9allocatorINS_11__hash_nodeINS_17__hash_value_typeIiNS_6vectorI6KostkaNS2_IS6_EEEEEEPvEEEEEELi1ELb0EE5__getB7v160006Ev, symObjAddr: 0x7CDC, symBinAddr: 0x100009C8C, symSize: 0x14 }
  - { offsetInCU: 0x18458, offset: 0x18458, size: 0x8, addend: 0x0, symName: __ZNKSt3__117__compressed_pairIPNS_11__hash_nodeINS_17__hash_value_typeIiNS_6vectorI6KostkaNS_9allocatorIS4_EEEEEEPvEENS_22__hash_node_destructorINS5_ISA_EEEEE5firstB7v160006Ev, symObjAddr: 0x7CF0, symBinAddr: 0x100009CA0, symSize: 0x24 }
  - { offsetInCU: 0x1847E, offset: 0x1847E, size: 0x8, addend: 0x0, symName: __ZNSt3__117__compressed_pairIPNS_11__hash_nodeINS_17__hash_value_typeIiNS_6vectorI6KostkaNS_9allocatorIS4_EEEEEEPvEENS_22__hash_node_destructorINS5_ISA_EEEEE5firstB7v160006Ev, symObjAddr: 0x7D14, symBinAddr: 0x100009CC4, symSize: 0x24 }
  - { offsetInCU: 0x184A4, offset: 0x184A4, size: 0x8, addend: 0x0, symName: __ZNSt3__110unique_ptrINS_11__hash_nodeINS_17__hash_value_typeIiNS_6vectorI6KostkaNS_9allocatorIS4_EEEEEEPvEENS_22__hash_node_destructorINS5_ISA_EEEEED2B7v160006Ev, symObjAddr: 0x7D38, symBinAddr: 0x100009CE8, symSize: 0x30 }
  - { offsetInCU: 0x184CE, offset: 0x184CE, size: 0x8, addend: 0x0, symName: __ZNSt3__110unique_ptrINS_11__hash_nodeINS_17__hash_value_typeIiNS_6vectorI6KostkaNS_9allocatorIS4_EEEEEEPvEENS_22__hash_node_destructorINS5_ISA_EEEEE5resetB7v160006EPSA_, symObjAddr: 0x7D68, symBinAddr: 0x100009D18, symSize: 0x78 }
  - { offsetInCU: 0x18512, offset: 0x18512, size: 0x8, addend: 0x0, symName: __ZNSt3__122__hash_node_destructorINS_9allocatorINS_11__hash_nodeINS_17__hash_value_typeIiNS_6vectorI6KostkaNS1_IS5_EEEEEEPvEEEEEclB7v160006EPSA_, symObjAddr: 0x7DE0, symBinAddr: 0x100009D90, symSize: 0xAC }
  - { offsetInCU: 0x18547, offset: 0x18547, size: 0x8, addend: 0x0, symName: __ZNKSt3__121__hash_const_iteratorIPNS_11__hash_nodeINS_17__hash_value_typeIiNS_6vectorI6KostkaNS_9allocatorIS4_EEEEEEPvEEEptB7v160006Ev, symObjAddr: 0x7E8C, symBinAddr: 0x100009E3C, symSize: 0x30 }
  - { offsetInCU: 0x1856D, offset: 0x1856D, size: 0x8, addend: 0x0, symName: __ZNSt3__114pointer_traitsIPKNS_17__hash_value_typeIiNS_6vectorI6KostkaNS_9allocatorIS3_EEEEEEE10pointer_toB7v160006ERS8_, symObjAddr: 0x7EBC, symBinAddr: 0x100009E6C, symSize: 0x14 }
  - { offsetInCU: 0x18590, offset: 0x18590, size: 0x8, addend: 0x0, symName: __ZNSt3__121__hash_const_iteratorIPNS_11__hash_nodeINS_17__hash_value_typeIiNS_6vectorI6KostkaNS_9allocatorIS4_EEEEEEPvEEEppB7v160006Ev, symObjAddr: 0x7ED0, symBinAddr: 0x100009E80, symSize: 0x20 }
  - { offsetInCU: 0x185B6, offset: 0x185B6, size: 0x8, addend: 0x0, symName: __ZNKSt3__112__hash_tableINS_17__hash_value_typeIiNS_6vectorI6KostkaNS_9allocatorIS3_EEEEEENS_22__unordered_map_hasherIiS7_NS_4hashIiEENS_8equal_toIiEELb1EEENS_21__unordered_map_equalIiS7_SC_SA_Lb1EEENS4_IS7_EEE5beginEv, symObjAddr: 0x7EF0, symBinAddr: 0x100009EA0, symSize: 0x40 }
  - { offsetInCU: 0x185DE, offset: 0x185DE, size: 0x8, addend: 0x0, symName: __ZNSt3__125__hash_map_const_iteratorINS_21__hash_const_iteratorIPNS_11__hash_nodeINS_17__hash_value_typeIiNS_6vectorI6KostkaNS_9allocatorIS5_EEEEEEPvEEEEEC1B7v160006ESD_, symObjAddr: 0x7F30, symBinAddr: 0x100009EE0, symSize: 0x34 }
  - { offsetInCU: 0x18617, offset: 0x18617, size: 0x8, addend: 0x0, symName: __ZNKSt3__117__compressed_pairINS_16__hash_node_baseIPNS_11__hash_nodeINS_17__hash_value_typeIiNS_6vectorI6KostkaNS_9allocatorIS5_EEEEEEPvEEEENS6_ISB_EEE5firstB7v160006Ev, symObjAddr: 0x7F64, symBinAddr: 0x100009F14, symSize: 0x24 }
  - { offsetInCU: 0x1863D, offset: 0x1863D, size: 0x8, addend: 0x0, symName: __ZNSt3__121__hash_const_iteratorIPNS_11__hash_nodeINS_17__hash_value_typeIiNS_6vectorI6KostkaNS_9allocatorIS4_EEEEEEPvEEEC1B7v160006EPNS_16__hash_node_baseISB_EEPKv, symObjAddr: 0x7F88, symBinAddr: 0x100009F38, symSize: 0x3C }
  - { offsetInCU: 0x18685, offset: 0x18685, size: 0x8, addend: 0x0, symName: __ZNKSt3__122__compressed_pair_elemINS_16__hash_node_baseIPNS_11__hash_nodeINS_17__hash_value_typeIiNS_6vectorI6KostkaNS_9allocatorIS5_EEEEEEPvEEEELi0ELb0EE5__getB7v160006Ev, symObjAddr: 0x7FC4, symBinAddr: 0x100009F74, symSize: 0x14 }
  - { offsetInCU: 0x186AB, offset: 0x186AB, size: 0x8, addend: 0x0, symName: __ZNSt3__121__hash_const_iteratorIPNS_11__hash_nodeINS_17__hash_value_typeIiNS_6vectorI6KostkaNS_9allocatorIS4_EEEEEEPvEEEC2B7v160006EPNS_16__hash_node_baseISB_EEPKv, symObjAddr: 0x7FD8, symBinAddr: 0x100009F88, symSize: 0x24 }
  - { offsetInCU: 0x186F3, offset: 0x186F3, size: 0x8, addend: 0x0, symName: __ZNSt3__125__hash_map_const_iteratorINS_21__hash_const_iteratorIPNS_11__hash_nodeINS_17__hash_value_typeIiNS_6vectorI6KostkaNS_9allocatorIS5_EEEEEEPvEEEEEC2B7v160006ESD_, symObjAddr: 0x7FFC, symBinAddr: 0x100009FAC, symSize: 0x20 }
  - { offsetInCU: 0x1872C, offset: 0x1872C, size: 0x8, addend: 0x0, symName: __ZNKSt3__112__hash_tableINS_17__hash_value_typeIiNS_6vectorI6KostkaNS_9allocatorIS3_EEEEEENS_22__unordered_map_hasherIiS7_NS_4hashIiEENS_8equal_toIiEELb1EEENS_21__unordered_map_equalIiS7_SC_SA_Lb1EEENS4_IS7_EEE3endEv, symObjAddr: 0x801C, symBinAddr: 0x100009FCC, symSize: 0x30 }
  - { offsetInCU: 0x18754, offset: 0x18754, size: 0x8, addend: 0x0, symName: __ZNSt3__15dequeI5StateNS_9allocatorIS1_EEE9push_backERKS1_, symObjAddr: 0x804C, symBinAddr: 0x100009FFC, symSize: 0xA0 }
  - { offsetInCU: 0x1879A, offset: 0x1879A, size: 0x8, addend: 0x0, symName: __ZNKSt3__15dequeI5StateNS_9allocatorIS1_EEE12__back_spareB7v160006Ev, symObjAddr: 0x80EC, symBinAddr: 0x10000A09C, symSize: 0x54 }
  - { offsetInCU: 0x187C0, offset: 0x187C0, size: 0x8, addend: 0x0, symName: __ZNSt3__15dequeI5StateNS_9allocatorIS1_EEE19__add_back_capacityEv, symObjAddr: 0x8140, symBinAddr: 0x10000A0F0, symSize: 0x32C }
  - { offsetInCU: 0x18878, offset: 0x18878, size: 0x8, addend: 0x0, symName: __ZNSt3__116allocator_traitsINS_9allocatorI5StateEEE9constructB7v160006IS2_JRKS2_EvEEvRS3_PT_DpOT0_, symObjAddr: 0x846C, symBinAddr: 0x10000A41C, symSize: 0x34 }
  - { offsetInCU: 0x188CF, offset: 0x188CF, size: 0x8, addend: 0x0, symName: __ZNKSt3__15dequeI5StateNS_9allocatorIS1_EEE10__capacityB7v160006Ev, symObjAddr: 0x84A0, symBinAddr: 0x10000A450, symSize: 0x64 }
  - { offsetInCU: 0x188F5, offset: 0x188F5, size: 0x8, addend: 0x0, symName: __ZNKSt3__15dequeI5StateNS_9allocatorIS1_EEE13__front_spareB7v160006Ev, symObjAddr: 0x8504, symBinAddr: 0x10000A4B4, symSize: 0x18 }
  - { offsetInCU: 0x1891B, offset: 0x1891B, size: 0x8, addend: 0x0, symName: __ZNSt3__114__split_bufferIP5StateNS_9allocatorIS2_EEE9push_backB7v160006ERKS2_, symObjAddr: 0x851C, symBinAddr: 0x10000A4CC, symSize: 0x270 }
  - { offsetInCU: 0x18994, offset: 0x18994, size: 0x8, addend: 0x0, symName: __ZNKSt3__114__split_bufferIP5StateNS_9allocatorIS2_EEE12__back_spareB7v160006Ev, symObjAddr: 0x878C, symBinAddr: 0x10000A73C, symSize: 0x40 }
  - { offsetInCU: 0x189BA, offset: 0x189BA, size: 0x8, addend: 0x0, symName: __ZNSt3__114__split_bufferIP5StateNS_9allocatorIS2_EEE9push_backEOS2_, symObjAddr: 0x87CC, symBinAddr: 0x10000A77C, symSize: 0x270 }
  - { offsetInCU: 0x18A33, offset: 0x18A33, size: 0x8, addend: 0x0, symName: __ZNSt3__116allocator_traitsINS_9allocatorI5StateEEE8allocateB7v160006ERS3_m, symObjAddr: 0x8A3C, symBinAddr: 0x10000A9EC, symSize: 0x2C }
  - { offsetInCU: 0x18A66, offset: 0x18A66, size: 0x8, addend: 0x0, symName: __ZNSt3__114__split_bufferIP5StateNS_9allocatorIS2_EEE10push_frontEOS2_, symObjAddr: 0x8A68, symBinAddr: 0x10000AA18, symSize: 0x26C }
  - { offsetInCU: 0x18ADF, offset: 0x18ADF, size: 0x8, addend: 0x0, symName: __ZNSt3__114__split_bufferIP5StateRNS_9allocatorIS2_EEEC1EmmS5_, symObjAddr: 0x8CD4, symBinAddr: 0x10000AC84, symSize: 0x44 }
  - { offsetInCU: 0x18B3A, offset: 0x18B3A, size: 0x8, addend: 0x0, symName: __ZNSt3__122__allocator_destructorINS_9allocatorI5StateEEEC1B7v160006ERS3_m, symObjAddr: 0x8D18, symBinAddr: 0x10000ACC8, symSize: 0x3C }
  - { offsetInCU: 0x18C04, offset: 0x18C04, size: 0x8, addend: 0x0, symName: __ZNSt3__110unique_ptrIP5StateNS_22__allocator_destructorINS_9allocatorIS1_EEEEEC1B7v160006ILb1EvEES2_NS_16__dependent_typeINS_27__unique_ptr_deleter_sfinaeIS6_EEXT_EE20__good_rval_ref_typeE, symObjAddr: 0x8D54, symBinAddr: 0x10000AD04, symSize: 0x3C }
  - { offsetInCU: 0x18C55, offset: 0x18C55, size: 0x8, addend: 0x0, symName: __ZNSt3__114__split_bufferIP5StateRNS_9allocatorIS2_EEE9push_backEOS2_, symObjAddr: 0x8D90, symBinAddr: 0x10000AD40, symSize: 0x270 }
  - { offsetInCU: 0x18CCE, offset: 0x18CCE, size: 0x8, addend: 0x0, symName: __ZNKSt3__110unique_ptrIP5StateNS_22__allocator_destructorINS_9allocatorIS1_EEEEE3getB7v160006Ev, symObjAddr: 0x9000, symBinAddr: 0x10000AFB0, symSize: 0x28 }
  - { offsetInCU: 0x18CF4, offset: 0x18CF4, size: 0x8, addend: 0x0, symName: __ZNSt3__110unique_ptrIP5StateNS_22__allocator_destructorINS_9allocatorIS1_EEEEE7releaseB7v160006Ev, symObjAddr: 0x9028, symBinAddr: 0x10000AFD8, symSize: 0x44 }
  - { offsetInCU: 0x18D29, offset: 0x18D29, size: 0x8, addend: 0x0, symName: __ZNSt3__114__split_bufferIP5StateRNS_9allocatorIS2_EEE10push_frontERKS2_, symObjAddr: 0x906C, symBinAddr: 0x10000B01C, symSize: 0x26C }
  - { offsetInCU: 0x18DA2, offset: 0x18DA2, size: 0x8, addend: 0x0, symName: __ZNSt3__114__split_bufferIP5StateNS_9allocatorIS2_EEE9__end_capB7v160006Ev, symObjAddr: 0x9314, symBinAddr: 0x10000B2C4, symSize: 0x28 }
  - { offsetInCU: 0x18DC8, offset: 0x18DC8, size: 0x8, addend: 0x0, symName: __ZNSt3__114__split_bufferIP5StateRNS_9allocatorIS2_EEE9__end_capB7v160006Ev, symObjAddr: 0x933C, symBinAddr: 0x10000B2EC, symSize: 0x28 }
  - { offsetInCU: 0x18DEE, offset: 0x18DEE, size: 0x8, addend: 0x0, symName: __ZNSt3__110unique_ptrIP5StateNS_22__allocator_destructorINS_9allocatorIS1_EEEEED1B7v160006Ev, symObjAddr: 0x9364, symBinAddr: 0x10000B314, symSize: 0x2C }
  - { offsetInCU: 0x18E18, offset: 0x18E18, size: 0x8, addend: 0x0, symName: __ZNSt3__114__split_bufferIP5StateRNS_9allocatorIS2_EEED1Ev, symObjAddr: 0x9390, symBinAddr: 0x10000B340, symSize: 0x2C }
  - { offsetInCU: 0x18E44, offset: 0x18E44, size: 0x8, addend: 0x0, symName: __ZNSt3__114__split_bufferIP5StateRNS_9allocatorIS2_EEE18__construct_at_endINS_13move_iteratorIPS2_EEEENS_9enable_ifIXsr27__is_cpp17_forward_iteratorIT_EE5valueEvE4typeESC_SC_, symObjAddr: 0x93FC, symBinAddr: 0x10000B3AC, symSize: 0x104 }
  - { offsetInCU: 0x18EA0, offset: 0x18EA0, size: 0x8, addend: 0x0, symName: __ZNSt3__113move_iteratorIPP5StateEC1B7v160006ES3_, symObjAddr: 0x9500, symBinAddr: 0x10000B4B0, symSize: 0x34 }
  - { offsetInCU: 0x18ED8, offset: 0x18ED8, size: 0x8, addend: 0x0, symName: __ZNSt3__116allocator_traitsINS_9allocatorIP5StateEEE9constructB7v160006IS3_JRKS3_EvEEvRS4_PT_DpOT0_, symObjAddr: 0x9534, symBinAddr: 0x10000B4E4, symSize: 0x34 }
  - { offsetInCU: 0x18F53, offset: 0x18F53, size: 0x8, addend: 0x0, symName: __ZNKSt3__114__move_trivialclB7v160006IP5StateS3_Li0EEENS_4pairIPT_PT0_EES6_S6_S8_, symObjAddr: 0x9714, symBinAddr: 0x10000B6C4, symSize: 0x48 }
  - { offsetInCU: 0x18FBB, offset: 0x18FBB, size: 0x8, addend: 0x0, symName: __ZNSt3__14pairIPP5StateS3_EC1B7v160006ERKS3_S6_, symObjAddr: 0x98F0, symBinAddr: 0x10000B8A0, symSize: 0x3C }
  - { offsetInCU: 0x19001, offset: 0x19001, size: 0x8, addend: 0x0, symName: __ZNSt3__14pairIPP5StateS3_EC2B7v160006ERKS3_S6_, symObjAddr: 0x992C, symBinAddr: 0x10000B8DC, symSize: 0x34 }
  - { offsetInCU: 0x19047, offset: 0x19047, size: 0x8, addend: 0x0, symName: __ZNSt3__118__unwrap_iter_implIPP5StateLb1EE8__unwrapB7v160006ES3_, symObjAddr: 0x9960, symBinAddr: 0x10000B910, symSize: 0x24 }
  - { offsetInCU: 0x1906A, offset: 0x1906A, size: 0x8, addend: 0x0, symName: __ZNSt3__118__unwrap_iter_implIPP5StateLb1EE8__rewrapB7v160006ES3_S3_, symObjAddr: 0x9984, symBinAddr: 0x10000B934, symSize: 0x50 }
  - { offsetInCU: 0x190A5, offset: 0x190A5, size: 0x8, addend: 0x0, symName: __ZNSt3__114__split_bufferIP5StateRNS_9allocatorIS2_EEE21_ConstructTransactionC1B7v160006EPPS2_m, symObjAddr: 0x9A10, symBinAddr: 0x10000B9C0, symSize: 0x3C }
  - { offsetInCU: 0x190EB, offset: 0x190EB, size: 0x8, addend: 0x0, symName: __ZNSt3__116allocator_traitsINS_9allocatorIP5StateEEE9constructB7v160006IS3_JS3_EvEEvRS4_PT_DpOT0_, symObjAddr: 0x9A4C, symBinAddr: 0x10000B9FC, symSize: 0x34 }
  - { offsetInCU: 0x19142, offset: 0x19142, size: 0x8, addend: 0x0, symName: __ZNSt3__114__split_bufferIP5StateRNS_9allocatorIS2_EEE7__allocB7v160006Ev, symObjAddr: 0x9A80, symBinAddr: 0x10000BA30, symSize: 0x28 }
  - { offsetInCU: 0x19168, offset: 0x19168, size: 0x8, addend: 0x0, symName: __ZNKSt3__113move_iteratorIPP5StateEdeB7v160006Ev, symObjAddr: 0x9AA8, symBinAddr: 0x10000BA58, symSize: 0x18 }
  - { offsetInCU: 0x1918E, offset: 0x1918E, size: 0x8, addend: 0x0, symName: __ZNSt3__113move_iteratorIPP5StateEppB7v160006Ev, symObjAddr: 0x9AC0, symBinAddr: 0x10000BA70, symSize: 0x20 }
  - { offsetInCU: 0x191B4, offset: 0x191B4, size: 0x8, addend: 0x0, symName: __ZNSt3__114__split_bufferIP5StateRNS_9allocatorIS2_EEE21_ConstructTransactionD1B7v160006Ev, symObjAddr: 0x9AE0, symBinAddr: 0x10000BA90, symSize: 0x2C }
  - { offsetInCU: 0x191DE, offset: 0x191DE, size: 0x8, addend: 0x0, symName: __ZNKSt3__113move_iteratorIPP5StateE4baseB7v160006Ev, symObjAddr: 0x9B84, symBinAddr: 0x10000BB34, symSize: 0x18 }
  - { offsetInCU: 0x19204, offset: 0x19204, size: 0x8, addend: 0x0, symName: __ZNSt3__114__split_bufferIP5StateRNS_9allocatorIS2_EEE21_ConstructTransactionC2B7v160006EPPS2_m, symObjAddr: 0x9B9C, symBinAddr: 0x10000BB4C, symSize: 0x44 }
  - { offsetInCU: 0x1924A, offset: 0x1924A, size: 0x8, addend: 0x0, symName: __ZNSt3__19allocatorIP5StateE9constructB7v160006IS2_JS2_EEEvPT_DpOT0_, symObjAddr: 0x9BE0, symBinAddr: 0x10000BB90, symSize: 0x28 }
  - { offsetInCU: 0x192A0, offset: 0x192A0, size: 0x8, addend: 0x0, symName: __ZNSt3__117__compressed_pairIPP5StateRNS_9allocatorIS2_EEE6secondB7v160006Ev, symObjAddr: 0x9C08, symBinAddr: 0x10000BBB8, symSize: 0x28 }
  - { offsetInCU: 0x192C6, offset: 0x192C6, size: 0x8, addend: 0x0, symName: __ZNSt3__122__compressed_pair_elemIRNS_9allocatorIP5StateEELi1ELb0EE5__getB7v160006Ev, symObjAddr: 0x9C30, symBinAddr: 0x10000BBE0, symSize: 0x18 }
  - { offsetInCU: 0x192EC, offset: 0x192EC, size: 0x8, addend: 0x0, symName: __ZNSt3__114__split_bufferIP5StateRNS_9allocatorIS2_EEE21_ConstructTransactionD2B7v160006Ev, symObjAddr: 0x9C48, symBinAddr: 0x10000BBF8, symSize: 0x20 }
  - { offsetInCU: 0x19316, offset: 0x19316, size: 0x8, addend: 0x0, symName: __ZNSt3__113move_iteratorIPP5StateEC2B7v160006ES3_, symObjAddr: 0x9C68, symBinAddr: 0x10000BC18, symSize: 0x20 }
  - { offsetInCU: 0x1934E, offset: 0x1934E, size: 0x8, addend: 0x0, symName: __ZNSt3__19allocatorIP5StateE9constructB7v160006IS2_JRKS2_EEEvPT_DpOT0_, symObjAddr: 0x9C88, symBinAddr: 0x10000BC38, symSize: 0x28 }
  - { offsetInCU: 0x193A4, offset: 0x193A4, size: 0x8, addend: 0x0, symName: __ZNSt3__19allocatorI5StateE8allocateB7v160006Em, symObjAddr: 0x9CB0, symBinAddr: 0x10000BC60, symSize: 0x8C }
  - { offsetInCU: 0x193E2, offset: 0x193E2, size: 0x8, addend: 0x0, symName: __ZNSt3__116allocator_traitsINS_9allocatorI5StateEEE8max_sizeB7v160006IS3_vEEmRKS3_, symObjAddr: 0x9D3C, symBinAddr: 0x10000BCEC, symSize: 0x24 }
  - { offsetInCU: 0x19410, offset: 0x19410, size: 0x8, addend: 0x0, symName: __ZNKSt3__19allocatorI5StateE8max_sizeB7v160006Ev, symObjAddr: 0x9D60, symBinAddr: 0x10000BD10, symSize: 0x20 }
  - { offsetInCU: 0x19440, offset: 0x19440, size: 0x8, addend: 0x0, symName: __ZNKSt3__123__move_backward_trivialclB7v160006IP5StateS3_Li0EEENS_4pairIPT_PT0_EES6_S6_S8_, symObjAddr: 0x9F0C, symBinAddr: 0x10000BEBC, symSize: 0x48 }
  - { offsetInCU: 0x194A8, offset: 0x194A8, size: 0x8, addend: 0x0, symName: __ZNSt3__114__split_bufferIP5StateRNS_9allocatorIS2_EEEC2EmmS5_, symObjAddr: 0xA020, symBinAddr: 0x10000BFD0, symSize: 0xD4 }
  - { offsetInCU: 0x1951C, offset: 0x1951C, size: 0x8, addend: 0x0, symName: __ZNSt3__117__compressed_pairIPP5StateRNS_9allocatorIS2_EEEC1B7v160006IDnS6_EEOT_OT0_, symObjAddr: 0xA0F4, symBinAddr: 0x10000C0A4, symSize: 0x3C }
  - { offsetInCU: 0x19574, offset: 0x19574, size: 0x8, addend: 0x0, symName: __ZNSt3__117__compressed_pairIPP5StateRNS_9allocatorIS2_EEEC2B7v160006IDnS6_EEOT_OT0_, symObjAddr: 0xA170, symBinAddr: 0x10000C120, symSize: 0x48 }
  - { offsetInCU: 0x195CC, offset: 0x195CC, size: 0x8, addend: 0x0, symName: __ZNSt3__122__compressed_pair_elemIRNS_9allocatorIP5StateEELi1ELb0EEC2B7v160006IS5_vEEOT_, symObjAddr: 0xA1B8, symBinAddr: 0x10000C168, symSize: 0x20 }
  - { offsetInCU: 0x1960E, offset: 0x1960E, size: 0x8, addend: 0x0, symName: __ZNSt3__19allocatorIP5StateE8allocateB7v160006Em, symObjAddr: 0xA1D8, symBinAddr: 0x10000C188, symSize: 0x84 }
  - { offsetInCU: 0x1964C, offset: 0x1964C, size: 0x8, addend: 0x0, symName: __ZNSt3__116allocator_traitsINS_9allocatorIP5StateEEE8max_sizeB7v160006IS4_vEEmRKS4_, symObjAddr: 0xA25C, symBinAddr: 0x10000C20C, symSize: 0x24 }
  - { offsetInCU: 0x1967A, offset: 0x1967A, size: 0x8, addend: 0x0, symName: __ZNKSt3__19allocatorIP5StateE8max_sizeB7v160006Ev, symObjAddr: 0xA280, symBinAddr: 0x10000C230, symSize: 0x14 }
  - { offsetInCU: 0x196A0, offset: 0x196A0, size: 0x8, addend: 0x0, symName: __ZNSt3__122__allocator_destructorINS_9allocatorI5StateEEEC2B7v160006ERS3_m, symObjAddr: 0xA294, symBinAddr: 0x10000C244, symSize: 0x2C }
  - { offsetInCU: 0x196E6, offset: 0x196E6, size: 0x8, addend: 0x0, symName: __ZNSt3__110unique_ptrIP5StateNS_22__allocator_destructorINS_9allocatorIS1_EEEEEC2B7v160006ILb1EvEES2_NS_16__dependent_typeINS_27__unique_ptr_deleter_sfinaeIS6_EEXT_EE20__good_rval_ref_typeE, symObjAddr: 0xA2C0, symBinAddr: 0x10000C270, symSize: 0x5C }
  - { offsetInCU: 0x19737, offset: 0x19737, size: 0x8, addend: 0x0, symName: __ZNSt3__117__compressed_pairIP5StateNS_22__allocator_destructorINS_9allocatorIS1_EEEEEC1B7v160006IRS2_S6_EEOT_OT0_, symObjAddr: 0xA31C, symBinAddr: 0x10000C2CC, symSize: 0x3C }
  - { offsetInCU: 0x1978F, offset: 0x1978F, size: 0x8, addend: 0x0, symName: __ZNSt3__117__compressed_pairIP5StateNS_22__allocator_destructorINS_9allocatorIS1_EEEEEC2B7v160006IRS2_S6_EEOT_OT0_, symObjAddr: 0xA358, symBinAddr: 0x10000C308, symSize: 0x48 }
  - { offsetInCU: 0x197E7, offset: 0x197E7, size: 0x8, addend: 0x0, symName: __ZNSt3__122__compressed_pair_elemIP5StateLi0ELb0EEC2B7v160006IRS2_vEEOT_, symObjAddr: 0xA3A0, symBinAddr: 0x10000C350, symSize: 0x24 }
  - { offsetInCU: 0x19829, offset: 0x19829, size: 0x8, addend: 0x0, symName: __ZNSt3__122__compressed_pair_elemINS_22__allocator_destructorINS_9allocatorI5StateEEEELi1ELb0EEC2B7v160006IS5_vEEOT_, symObjAddr: 0xA3C4, symBinAddr: 0x10000C374, symSize: 0x24 }
  - { offsetInCU: 0x1986B, offset: 0x1986B, size: 0x8, addend: 0x0, symName: __ZNKSt3__117__compressed_pairIP5StateNS_22__allocator_destructorINS_9allocatorIS1_EEEEE5firstB7v160006Ev, symObjAddr: 0xA3E8, symBinAddr: 0x10000C398, symSize: 0x24 }
  - { offsetInCU: 0x19891, offset: 0x19891, size: 0x8, addend: 0x0, symName: __ZNKSt3__122__compressed_pair_elemIP5StateLi0ELb0EE5__getB7v160006Ev, symObjAddr: 0xA40C, symBinAddr: 0x10000C3BC, symSize: 0x14 }
  - { offsetInCU: 0x198B7, offset: 0x198B7, size: 0x8, addend: 0x0, symName: __ZNSt3__117__compressed_pairIP5StateNS_22__allocator_destructorINS_9allocatorIS1_EEEEE5firstB7v160006Ev, symObjAddr: 0xA420, symBinAddr: 0x10000C3D0, symSize: 0x24 }
  - { offsetInCU: 0x198DD, offset: 0x198DD, size: 0x8, addend: 0x0, symName: __ZNSt3__122__compressed_pair_elemIP5StateLi0ELb0EE5__getB7v160006Ev, symObjAddr: 0xA444, symBinAddr: 0x10000C3F4, symSize: 0x14 }
  - { offsetInCU: 0x19903, offset: 0x19903, size: 0x8, addend: 0x0, symName: __ZNSt3__117__compressed_pairIPP5StateNS_9allocatorIS2_EEE5firstB7v160006Ev, symObjAddr: 0xA458, symBinAddr: 0x10000C408, symSize: 0x24 }
  - { offsetInCU: 0x19929, offset: 0x19929, size: 0x8, addend: 0x0, symName: __ZNSt3__122__compressed_pair_elemIPP5StateLi0ELb0EE5__getB7v160006Ev, symObjAddr: 0xA47C, symBinAddr: 0x10000C42C, symSize: 0x14 }
  - { offsetInCU: 0x1994F, offset: 0x1994F, size: 0x8, addend: 0x0, symName: __ZNSt3__117__compressed_pairIPP5StateRNS_9allocatorIS2_EEE5firstB7v160006Ev, symObjAddr: 0xA490, symBinAddr: 0x10000C440, symSize: 0x24 }
  - { offsetInCU: 0x19975, offset: 0x19975, size: 0x8, addend: 0x0, symName: __ZNSt3__110unique_ptrIP5StateNS_22__allocator_destructorINS_9allocatorIS1_EEEEED2B7v160006Ev, symObjAddr: 0xA4B4, symBinAddr: 0x10000C464, symSize: 0x30 }
  - { offsetInCU: 0x1999F, offset: 0x1999F, size: 0x8, addend: 0x0, symName: __ZNSt3__110unique_ptrIP5StateNS_22__allocator_destructorINS_9allocatorIS1_EEEEE5resetB7v160006ES2_, symObjAddr: 0xA4E4, symBinAddr: 0x10000C494, symSize: 0x78 }
  - { offsetInCU: 0x199E3, offset: 0x199E3, size: 0x8, addend: 0x0, symName: __ZNSt3__117__compressed_pairIP5StateNS_22__allocator_destructorINS_9allocatorIS1_EEEEE6secondB7v160006Ev, symObjAddr: 0xA55C, symBinAddr: 0x10000C50C, symSize: 0x28 }
  - { offsetInCU: 0x19A09, offset: 0x19A09, size: 0x8, addend: 0x0, symName: __ZNSt3__122__allocator_destructorINS_9allocatorI5StateEEEclB7v160006EPS2_, symObjAddr: 0xA584, symBinAddr: 0x10000C534, symSize: 0x34 }
  - { offsetInCU: 0x19A3D, offset: 0x19A3D, size: 0x8, addend: 0x0, symName: __ZNSt3__122__compressed_pair_elemINS_22__allocator_destructorINS_9allocatorI5StateEEEELi1ELb0EE5__getB7v160006Ev, symObjAddr: 0xA5B8, symBinAddr: 0x10000C568, symSize: 0x14 }
  - { offsetInCU: 0x19A63, offset: 0x19A63, size: 0x8, addend: 0x0, symName: __ZNSt3__114__split_bufferIP5StateRNS_9allocatorIS2_EEED2Ev, symObjAddr: 0xA5CC, symBinAddr: 0x10000C57C, symSize: 0x80 }
  - { offsetInCU: 0x19A8F, offset: 0x19A8F, size: 0x8, addend: 0x0, symName: __ZNSt3__114__split_bufferIP5StateRNS_9allocatorIS2_EEE5clearB7v160006Ev, symObjAddr: 0xA64C, symBinAddr: 0x10000C5FC, symSize: 0x28 }
  - { offsetInCU: 0x19AB5, offset: 0x19AB5, size: 0x8, addend: 0x0, symName: __ZNKSt3__114__split_bufferIP5StateRNS_9allocatorIS2_EEE8capacityB7v160006Ev, symObjAddr: 0xA674, symBinAddr: 0x10000C624, symSize: 0x40 }
  - { offsetInCU: 0x19ADB, offset: 0x19ADB, size: 0x8, addend: 0x0, symName: __ZNSt3__114__split_bufferIP5StateRNS_9allocatorIS2_EEE17__destruct_at_endB7v160006EPS2_, symObjAddr: 0xA6B4, symBinAddr: 0x10000C664, symSize: 0x2C }
  - { offsetInCU: 0x19B0F, offset: 0x19B0F, size: 0x8, addend: 0x0, symName: __ZNSt3__114__split_bufferIP5StateRNS_9allocatorIS2_EEE17__destruct_at_endB7v160006EPS2_NS_17integral_constantIbLb0EEE, symObjAddr: 0xA6E0, symBinAddr: 0x10000C690, symSize: 0x94 }
  - { offsetInCU: 0x19B4F, offset: 0x19B4F, size: 0x8, addend: 0x0, symName: __ZNKSt3__114__split_bufferIP5StateRNS_9allocatorIS2_EEE9__end_capB7v160006Ev, symObjAddr: 0xA774, symBinAddr: 0x10000C724, symSize: 0x28 }
  - { offsetInCU: 0x19B75, offset: 0x19B75, size: 0x8, addend: 0x0, symName: __ZNKSt3__117__compressed_pairIPP5StateRNS_9allocatorIS2_EEE5firstB7v160006Ev, symObjAddr: 0xA79C, symBinAddr: 0x10000C74C, symSize: 0x24 }
  - { offsetInCU: 0x19B9B, offset: 0x19B9B, size: 0x8, addend: 0x0, symName: __ZNSt3__19allocatorI5StateE9constructB7v160006IS1_JRKS1_EEEvPT_DpOT0_, symObjAddr: 0xA7C0, symBinAddr: 0x10000C770, symSize: 0x30 }
  - { offsetInCU: 0x19BF1, offset: 0x19BF1, size: 0x8, addend: 0x0, symName: __ZNKSt3__15dequeI5StateNS_9allocatorIS1_EEE5emptyB7v160006Ev, symObjAddr: 0xA7F0, symBinAddr: 0x10000C7A0, symSize: 0x30 }
  - { offsetInCU: 0x19C17, offset: 0x19C17, size: 0x8, addend: 0x0, symName: __ZNSt3__15dequeI5StateNS_9allocatorIS1_EEE4backEv, symObjAddr: 0xA820, symBinAddr: 0x10000C7D0, symSize: 0x70 }
  - { offsetInCU: 0x19C4E, offset: 0x19C4E, size: 0x8, addend: 0x0, symName: __ZNSt3__16vectorI6KostkaNS_9allocatorIS1_EEEC2ERKS4_, symObjAddr: 0xA890, symBinAddr: 0x10000C840, symSize: 0x118 }
  - { offsetInCU: 0x19CAD, offset: 0x19CAD, size: 0x8, addend: 0x0, symName: __ZNSt3__116allocator_traitsINS_9allocatorI6KostkaEEE37select_on_container_copy_constructionB7v160006IS3_vvEES3_RKS3_, symObjAddr: 0xA9A8, symBinAddr: 0x10000C958, symSize: 0x10 }
  - { offsetInCU: 0x19CE2, offset: 0x19CE2, size: 0x8, addend: 0x0, symName: __ZNSt3__117__compressed_pairIP6KostkaNS_9allocatorIS1_EEEC1B7v160006IDnS4_EEOT_OT0_, symObjAddr: 0xA9B8, symBinAddr: 0x10000C968, symSize: 0x3C }
  - { offsetInCU: 0x19D3A, offset: 0x19D3A, size: 0x8, addend: 0x0, symName: __ZNSt3__16vectorI6KostkaNS_9allocatorIS1_EEE11__vallocateB7v160006Em, symObjAddr: 0xAA34, symBinAddr: 0x10000C9E4, symSize: 0xB4 }
  - { offsetInCU: 0x19D7E, offset: 0x19D7E, size: 0x8, addend: 0x0, symName: __ZNSt3__16vectorI6KostkaNS_9allocatorIS1_EEE18__construct_at_endIPS1_Li0EEEvT_S7_m, symObjAddr: 0xAAE8, symBinAddr: 0x10000CA98, symSize: 0x94 }
  - { offsetInCU: 0x19DF1, offset: 0x19DF1, size: 0x8, addend: 0x0, symName: __ZNSt3__128__exception_guard_exceptionsINS_6vectorI6KostkaNS_9allocatorIS2_EEE16__destroy_vectorEE10__completeB7v160006Ev, symObjAddr: 0xAB7C, symBinAddr: 0x10000CB2C, symSize: 0x1C }
  - { offsetInCU: 0x19E17, offset: 0x19E17, size: 0x8, addend: 0x0, symName: __ZNSt3__128__exception_guard_exceptionsINS_6vectorI6KostkaNS_9allocatorIS2_EEE16__destroy_vectorEED1B7v160006Ev, symObjAddr: 0xAB98, symBinAddr: 0x10000CB48, symSize: 0x2C }
  - { offsetInCU: 0x19E41, offset: 0x19E41, size: 0x8, addend: 0x0, symName: __ZNSt3__117__compressed_pairIP6KostkaNS_9allocatorIS1_EEEC2B7v160006IDnS4_EEOT_OT0_, symObjAddr: 0xABC4, symBinAddr: 0x10000CB74, symSize: 0x44 }
  - { offsetInCU: 0x19E99, offset: 0x19E99, size: 0x8, addend: 0x0, symName: __ZNSt3__122__compressed_pair_elemINS_9allocatorI6KostkaEELi1ELb1EEC2B7v160006IS3_vEEOT_, symObjAddr: 0xAC08, symBinAddr: 0x10000CBB8, symSize: 0x18 }
  - { offsetInCU: 0x19EDB, offset: 0x19EDB, size: 0x8, addend: 0x0, symName: __ZNSt3__128__exception_guard_exceptionsINS_6vectorI6KostkaNS_9allocatorIS2_EEE16__destroy_vectorEEC1B7v160006ES6_, symObjAddr: 0xAC20, symBinAddr: 0x10000CBD0, symSize: 0x34 }
  - { offsetInCU: 0x19F13, offset: 0x19F13, size: 0x8, addend: 0x0, symName: __ZNSt3__128__exception_guard_exceptionsINS_6vectorI6KostkaNS_9allocatorIS2_EEE16__destroy_vectorEEC2B7v160006ES6_, symObjAddr: 0xAC54, symBinAddr: 0x10000CC04, symSize: 0x24 }
  - { offsetInCU: 0x19F4B, offset: 0x19F4B, size: 0x8, addend: 0x0, symName: __ZNSt3__129_AllocatorDestroyRangeReverseINS_9allocatorI6KostkaEEPS2_EC1B7v160006ERS3_RS4_S7_, symObjAddr: 0xADC0, symBinAddr: 0x10000CD70, symSize: 0x44 }
  - { offsetInCU: 0x19FA2, offset: 0x19FA2, size: 0x8, addend: 0x0, symName: __ZNSt3__116allocator_traitsINS_9allocatorI6KostkaEEE9constructB7v160006IS2_JRS2_EvEEvRS3_PT_DpOT0_, symObjAddr: 0xAE04, symBinAddr: 0x10000CDB4, symSize: 0x34 }
  - { offsetInCU: 0x19FF9, offset: 0x19FF9, size: 0x8, addend: 0x0, symName: __ZNSt3__128__exception_guard_exceptionsINS_29_AllocatorDestroyRangeReverseINS_9allocatorI6KostkaEEPS3_EEE10__completeB7v160006Ev, symObjAddr: 0xAE38, symBinAddr: 0x10000CDE8, symSize: 0x1C }
  - { offsetInCU: 0x1A01F, offset: 0x1A01F, size: 0x8, addend: 0x0, symName: __ZNSt3__128__exception_guard_exceptionsINS_29_AllocatorDestroyRangeReverseINS_9allocatorI6KostkaEEPS3_EEED1B7v160006Ev, symObjAddr: 0xAE54, symBinAddr: 0x10000CE04, symSize: 0x2C }
  - { offsetInCU: 0x1A049, offset: 0x1A049, size: 0x8, addend: 0x0, symName: __ZNSt3__128__exception_guard_exceptionsINS_29_AllocatorDestroyRangeReverseINS_9allocatorI6KostkaEEPS3_EEEC1B7v160006ES6_, symObjAddr: 0xAE80, symBinAddr: 0x10000CE30, symSize: 0x34 }
  - { offsetInCU: 0x1A082, offset: 0x1A082, size: 0x8, addend: 0x0, symName: __ZNSt3__128__exception_guard_exceptionsINS_29_AllocatorDestroyRangeReverseINS_9allocatorI6KostkaEEPS3_EEEC2B7v160006ES6_, symObjAddr: 0xAEB4, symBinAddr: 0x10000CE64, symSize: 0x30 }
  - { offsetInCU: 0x1A0BB, offset: 0x1A0BB, size: 0x8, addend: 0x0, symName: __ZNSt3__129_AllocatorDestroyRangeReverseINS_9allocatorI6KostkaEEPS2_EC2B7v160006ERS3_RS4_S7_, symObjAddr: 0xAEE4, symBinAddr: 0x10000CE94, symSize: 0x38 }
  - { offsetInCU: 0x1A112, offset: 0x1A112, size: 0x8, addend: 0x0, symName: __ZNSt3__19allocatorI6KostkaE9constructB7v160006IS1_JRS1_EEEvPT_DpOT0_, symObjAddr: 0xAF1C, symBinAddr: 0x10000CECC, symSize: 0x30 }
  - { offsetInCU: 0x1A168, offset: 0x1A168, size: 0x8, addend: 0x0, symName: __ZNSt3__128__exception_guard_exceptionsINS_29_AllocatorDestroyRangeReverseINS_9allocatorI6KostkaEEPS3_EEED2B7v160006Ev, symObjAddr: 0xAF4C, symBinAddr: 0x10000CEFC, symSize: 0x48 }
  - { offsetInCU: 0x1A192, offset: 0x1A192, size: 0x8, addend: 0x0, symName: __ZNKSt3__129_AllocatorDestroyRangeReverseINS_9allocatorI6KostkaEEPS2_EclB7v160006Ev, symObjAddr: 0xAF94, symBinAddr: 0x10000CF44, symSize: 0x68 }
  - { offsetInCU: 0x1A1B8, offset: 0x1A1B8, size: 0x8, addend: 0x0, symName: __ZNSt3__128__exception_guard_exceptionsINS_6vectorI6KostkaNS_9allocatorIS2_EEE16__destroy_vectorEED2B7v160006Ev, symObjAddr: 0xB06C, symBinAddr: 0x10000D01C, symSize: 0x48 }
  - { offsetInCU: 0x1A1E2, offset: 0x1A1E2, size: 0x8, addend: 0x0, symName: __ZNSt3__15dequeI5StateNS_9allocatorIS1_EEE8pop_backEv, symObjAddr: 0xB0B4, symBinAddr: 0x10000D064, symSize: 0xC0 }
  - { offsetInCU: 0x1A228, offset: 0x1A228, size: 0x8, addend: 0x0, symName: __ZNSt3__15dequeI5StateNS_9allocatorIS1_EEE25__maybe_remove_back_spareB7v160006Eb, symObjAddr: 0xB188, symBinAddr: 0x10000D138, symSize: 0xCC }
  - { offsetInCU: 0x1A25D, offset: 0x1A25D, size: 0x8, addend: 0x0, symName: __ZNKSt3__15dequeI5StateNS_9allocatorIS1_EEE19__back_spare_blocksB7v160006Ev, symObjAddr: 0xB254, symBinAddr: 0x10000D204, symSize: 0x2C }
  - { offsetInCU: 0x1A283, offset: 0x1A283, size: 0x8, addend: 0x0, symName: __ZNSt3__114__split_bufferIP5StateNS_9allocatorIS2_EEE4backB7v160006Ev, symObjAddr: 0xB280, symBinAddr: 0x10000D230, symSize: 0x1C }
  - { offsetInCU: 0x1A2A9, offset: 0x1A2A9, size: 0x8, addend: 0x0, symName: __ZNSt3__114__split_bufferIP5StateNS_9allocatorIS2_EEE8pop_backB7v160006Ev, symObjAddr: 0xB29C, symBinAddr: 0x10000D24C, symSize: 0x2C }
  - { offsetInCU: 0x1A2CF, offset: 0x1A2CF, size: 0x8, addend: 0x0, symName: __ZNSt3__16vectorI6KostkaNS_9allocatorIS1_EEE19__copy_assign_allocB7v160006ERKS4_, symObjAddr: 0xB2C8, symBinAddr: 0x10000D278, symSize: 0x2C }
  - { offsetInCU: 0x1A304, offset: 0x1A304, size: 0x8, addend: 0x0, symName: __ZNSt3__16vectorI6KostkaNS_9allocatorIS1_EEE6assignIPS1_Li0EEEvT_S7_, symObjAddr: 0xB2F4, symBinAddr: 0x10000D2A4, symSize: 0x17C }
  - { offsetInCU: 0x1A3A4, offset: 0x1A3A4, size: 0x8, addend: 0x0, symName: __ZNSt3__16vectorI6KostkaNS_9allocatorIS1_EEE19__copy_assign_allocB7v160006ERKS4_NS_17integral_constantIbLb0EEE, symObjAddr: 0xB470, symBinAddr: 0x10000D420, symSize: 0x14 }
  - { offsetInCU: 0x1A3E0, offset: 0x1A3E0, size: 0x8, addend: 0x0, symName: __ZNSt3__16vectorI6KostkaNS_9allocatorIS1_EEE17__destruct_at_endB7v160006EPS1_, symObjAddr: 0xB540, symBinAddr: 0x10000D4F0, symSize: 0x88 }
  - { offsetInCU: 0x1A424, offset: 0x1A424, size: 0x8, addend: 0x0, symName: __ZNSt3__16vectorI6KostkaNS_9allocatorIS1_EEE13__vdeallocateEv, symObjAddr: 0xB5C8, symBinAddr: 0x10000D578, symSize: 0x8C }
  - { offsetInCU: 0x1A470, offset: 0x1A470, size: 0x8, addend: 0x0, symName: __ZNKSt3__114__copy_trivialclB7v160006I6KostkaS2_Li0EEENS_4pairIPT_PT0_EES5_S5_S7_, symObjAddr: 0xB86C, symBinAddr: 0x10000D81C, symSize: 0x48 }
  - { offsetInCU: 0x1A4D8, offset: 0x1A4D8, size: 0x8, addend: 0x0, symName: __ZNSt3__14pairIP6KostkaS2_EC1B7v160006ERKS2_S5_, symObjAddr: 0xBA50, symBinAddr: 0x10000DA00, symSize: 0x3C }
  - { offsetInCU: 0x1A51E, offset: 0x1A51E, size: 0x8, addend: 0x0, symName: __ZNSt3__14pairIP6KostkaS2_EC2B7v160006ERKS2_S5_, symObjAddr: 0xBA8C, symBinAddr: 0x10000DA3C, symSize: 0x34 }
  - { offsetInCU: 0x1A564, offset: 0x1A564, size: 0x8, addend: 0x0, symName: __ZNSt3__118__unwrap_iter_implIP6KostkaLb1EE8__unwrapB7v160006ES2_, symObjAddr: 0xBAC0, symBinAddr: 0x10000DA70, symSize: 0x24 }
  - { offsetInCU: 0x1A587, offset: 0x1A587, size: 0x8, addend: 0x0, symName: __ZNSt3__118__unwrap_iter_implIP6KostkaLb1EE8__rewrapB7v160006ES2_S2_, symObjAddr: 0xBAE4, symBinAddr: 0x10000DA94, symSize: 0x58 }
  - { offsetInCU: 0x1A5B8, offset: 0x1A5B8, size: 0x8, addend: 0x0, symName: __ZNSt3__16vectorI6KostkaNS_9allocatorIS1_EEE27__invalidate_iterators_pastB7v160006EPS1_, symObjAddr: 0xBB3C, symBinAddr: 0x10000DAEC, symSize: 0x14 }
  - { offsetInCU: 0x1A5EF, offset: 0x1A5EF, size: 0x8, addend: 0x0, symName: __ZNKSt3__16vectorI6KostkaNS_9allocatorIS1_EEE17__annotate_shrinkB7v160006Em, symObjAddr: 0xBB50, symBinAddr: 0x10000DB00, symSize: 0xD0 }
  - { offsetInCU: 0x1A624, offset: 0x1A624, size: 0x8, addend: 0x0, symName: __ZNSt3__16vectorI6KostkaNS_9allocatorIS1_EEE5clearB7v160006Ev, symObjAddr: 0xBC20, symBinAddr: 0x10000DBD0, symSize: 0x4C }
  - { offsetInCU: 0x1A659, offset: 0x1A659, size: 0x8, addend: 0x0, symName: __ZNSt3__112__hash_tableINS_17__hash_value_typeIiNS_6vectorI6KostkaNS_9allocatorIS3_EEEEEENS_22__unordered_map_hasherIiS7_NS_4hashIiEENS_8equal_toIiEELb1EEENS_21__unordered_map_equalIiS7_SC_SA_Lb1EEENS4_IS7_EEE4findIiEENS_15__hash_iteratorIPNS_11__hash_nodeIS7_PvEEEERKT_, symObjAddr: 0xBC6C, symBinAddr: 0x10000DC1C, symSize: 0x1B4 }
  - { offsetInCU: 0x1A6E4, offset: 0x1A6E4, size: 0x8, addend: 0x0, symName: __ZNSt3__112__hash_tableINS_17__hash_value_typeIiNS_6vectorI6KostkaNS_9allocatorIS3_EEEEEENS_22__unordered_map_hasherIiS7_NS_4hashIiEENS_8equal_toIiEELb1EEENS_21__unordered_map_equalIiS7_SC_SA_Lb1EEENS4_IS7_EEE3endEv, symObjAddr: 0xBE20, symBinAddr: 0x10000DDD0, symSize: 0x30 }
  - { offsetInCU: 0x1A70C, offset: 0x1A70C, size: 0x8, addend: 0x0, symName: __ZNSt3__111__wrap_iterIP6KostkaEpLB7v160006El, symObjAddr: 0xBE50, symBinAddr: 0x10000DE00, symSize: 0x30 }
  - { offsetInCU: 0x1A740, offset: 0x1A740, size: 0x8, addend: 0x0, symName: __ZNKSt3__16vectorI6KostkaNS_9allocatorIS1_EEE6cbeginB7v160006Ev, symObjAddr: 0xBEC8, symBinAddr: 0x10000DE78, symSize: 0x2C }
  - { offsetInCU: 0x1A766, offset: 0x1A766, size: 0x8, addend: 0x0, symName: __ZNKSt3__111__wrap_iterIPK6KostkaE4baseB7v160006Ev, symObjAddr: 0xBF34, symBinAddr: 0x10000DEE4, symSize: 0x18 }
  - { offsetInCU: 0x1A78C, offset: 0x1A78C, size: 0x8, addend: 0x0, symName: __ZNKSt3__16vectorI6KostkaNS_9allocatorIS1_EEE5beginB7v160006Ev, symObjAddr: 0xBF4C, symBinAddr: 0x10000DEFC, symSize: 0x30 }
  - { offsetInCU: 0x1A7B4, offset: 0x1A7B4, size: 0x8, addend: 0x0, symName: __ZNKSt3__16vectorI6KostkaNS_9allocatorIS1_EEE11__make_iterB7v160006EPKS1_, symObjAddr: 0xBF7C, symBinAddr: 0x10000DF2C, symSize: 0x34 }
  - { offsetInCU: 0x1A7E9, offset: 0x1A7E9, size: 0x8, addend: 0x0, symName: __ZNSt3__111__wrap_iterIPK6KostkaEC1B7v160006EPKvS3_, symObjAddr: 0xBFB0, symBinAddr: 0x10000DF60, symSize: 0x3C }
  - { offsetInCU: 0x1A82F, offset: 0x1A82F, size: 0x8, addend: 0x0, symName: __ZNSt3__111__wrap_iterIPK6KostkaEC2B7v160006EPKvS3_, symObjAddr: 0xBFEC, symBinAddr: 0x10000DF9C, symSize: 0x24 }
  - { offsetInCU: 0x1A875, offset: 0x1A875, size: 0x8, addend: 0x0, symName: __ZNKSt3__114__move_trivialclB7v160006I6KostkaS2_Li0EEENS_4pairIPT_PT0_EES5_S5_S7_, symObjAddr: 0xC15C, symBinAddr: 0x10000E10C, symSize: 0x48 }
  - { offsetInCU: 0x1A8DD, offset: 0x1A8DD, size: 0x8, addend: 0x0, symName: __ZNSt3__111__wrap_iterIPK6KostkaEC2B7v160006IPS1_EERKNS0_IT_EEPNS_9enable_ifIXsr14is_convertibleIS7_S3_EE5valueEvE4typeE, symObjAddr: 0xC1A4, symBinAddr: 0x10000E154, symSize: 0x40 }
  - { offsetInCU: 0x1A928, offset: 0x1A928, size: 0x8, addend: 0x0, symName: __ZNKSt3__19basic_iosIcNS_11char_traitsIcEEE5widenB7v160006Ec, symObjAddr: 0xC1E4, symBinAddr: 0x10000E194, symSize: 0x8C }
  - { offsetInCU: 0x1A996, offset: 0x1A996, size: 0x8, addend: 0x0, symName: __ZNKSt3__15ctypeIcE5widenB7v160006Ec, symObjAddr: 0xC29C, symBinAddr: 0x10000E24C, symSize: 0x38 }
  - { offsetInCU: 0x1A9CB, offset: 0x1A9CB, size: 0x8, addend: 0x0, symName: __ZNSt3__111char_traitsIcE6lengthEPKc, symObjAddr: 0xC4C8, symBinAddr: 0x10000E478, symSize: 0x48 }
  - { offsetInCU: 0x1AA0C, offset: 0x1AA0C, size: 0x8, addend: 0x0, symName: __ZNKSt3__113basic_ostreamIcNS_11char_traitsIcEEE6sentrycvbB7v160006Ev, symObjAddr: 0xC510, symBinAddr: 0x10000E4C0, symSize: 0x1C }
  - { offsetInCU: 0x1AA32, offset: 0x1AA32, size: 0x8, addend: 0x0, symName: __ZNSt3__119ostreambuf_iteratorIcNS_11char_traitsIcEEEC1B7v160006ERNS_13basic_ostreamIcS2_EE, symObjAddr: 0xC774, symBinAddr: 0x10000E724, symSize: 0x34 }
  - { offsetInCU: 0x1AA6A, offset: 0x1AA6A, size: 0x8, addend: 0x0, symName: __ZNKSt3__18ios_base5flagsB7v160006Ev, symObjAddr: 0xC7A8, symBinAddr: 0x10000E758, symSize: 0x18 }
  - { offsetInCU: 0x1AA92, offset: 0x1AA92, size: 0x8, addend: 0x0, symName: __ZNKSt3__19basic_iosIcNS_11char_traitsIcEEE4fillB7v160006Ev, symObjAddr: 0xC7C0, symBinAddr: 0x10000E770, symSize: 0x64 }
  - { offsetInCU: 0x1AABA, offset: 0x1AABA, size: 0x8, addend: 0x0, symName: __ZNKSt3__119ostreambuf_iteratorIcNS_11char_traitsIcEEE6failedB7v160006Ev, symObjAddr: 0xC824, symBinAddr: 0x10000E7D4, symSize: 0x24 }
  - { offsetInCU: 0x1AAE0, offset: 0x1AAE0, size: 0x8, addend: 0x0, symName: __ZNSt3__19basic_iosIcNS_11char_traitsIcEEE8setstateB7v160006Ej, symObjAddr: 0xC848, symBinAddr: 0x10000E7F8, symSize: 0x2C }
  - { offsetInCU: 0x1AB15, offset: 0x1AB15, size: 0x8, addend: 0x0, symName: __ZNKSt3__18ios_base5widthB7v160006Ev, symObjAddr: 0xC874, symBinAddr: 0x10000E824, symSize: 0x18 }
  - { offsetInCU: 0x1AB3D, offset: 0x1AB3D, size: 0x8, addend: 0x0, symName: __ZNSt3__115basic_streambufIcNS_11char_traitsIcEEE5sputnB7v160006EPKcl, symObjAddr: 0xC88C, symBinAddr: 0x10000E83C, symSize: 0x3C }
  - { offsetInCU: 0x1AB7F, offset: 0x1AB7F, size: 0x8, addend: 0x0, symName: __ZNSt3__112basic_stringIcNS_11char_traitsIcEENS_9allocatorIcEEEC1B7v160006Emc, symObjAddr: 0xC8C8, symBinAddr: 0x10000E878, symSize: 0x3C }
  - { offsetInCU: 0x1ABC7, offset: 0x1ABC7, size: 0x8, addend: 0x0, symName: __ZNKSt3__112basic_stringIcNS_11char_traitsIcEENS_9allocatorIcEEE4dataB7v160006Ev, symObjAddr: 0xC904, symBinAddr: 0x10000E8B4, symSize: 0x28 }
  - { offsetInCU: 0x1ABED, offset: 0x1ABED, size: 0x8, addend: 0x0, symName: __ZNSt3__18ios_base5widthB7v160006El, symObjAddr: 0xC92C, symBinAddr: 0x10000E8DC, symSize: 0x2C }
  - { offsetInCU: 0x1AC33, offset: 0x1AC33, size: 0x8, addend: 0x0, symName: __ZNSt3__112basic_stringIcNS_11char_traitsIcEENS_9allocatorIcEEEC2B7v160006Emc, symObjAddr: 0xC958, symBinAddr: 0x10000E908, symSize: 0x54 }
  - { offsetInCU: 0x1AC7B, offset: 0x1AC7B, size: 0x8, addend: 0x0, symName: __ZNSt3__117__compressed_pairINS_12basic_stringIcNS_11char_traitsIcEENS_9allocatorIcEEE5__repES5_EC1B7v160006INS_18__default_init_tagESA_EEOT_OT0_, symObjAddr: 0xC9AC, symBinAddr: 0x10000E95C, symSize: 0x3C }
  - { offsetInCU: 0x1ACD3, offset: 0x1ACD3, size: 0x8, addend: 0x0, symName: __ZNSt3__117__compressed_pairINS_12basic_stringIcNS_11char_traitsIcEENS_9allocatorIcEEE5__repES5_EC2B7v160006INS_18__default_init_tagESA_EEOT_OT0_, symObjAddr: 0xC9F8, symBinAddr: 0x10000E9A8, symSize: 0x3C }
  - { offsetInCU: 0x1AD2B, offset: 0x1AD2B, size: 0x8, addend: 0x0, symName: __ZNSt3__122__compressed_pair_elemINS_12basic_stringIcNS_11char_traitsIcEENS_9allocatorIcEEE5__repELi0ELb0EEC2B7v160006ENS_18__default_init_tagE, symObjAddr: 0xCA34, symBinAddr: 0x10000E9E4, symSize: 0x14 }
  - { offsetInCU: 0x1AD5F, offset: 0x1AD5F, size: 0x8, addend: 0x0, symName: __ZNSt3__122__compressed_pair_elemINS_9allocatorIcEELi1ELb1EEC2B7v160006ENS_18__default_init_tagE, symObjAddr: 0xCA48, symBinAddr: 0x10000E9F8, symSize: 0x2C }
  - { offsetInCU: 0x1AD93, offset: 0x1AD93, size: 0x8, addend: 0x0, symName: __ZNSt3__19allocatorIcEC2B7v160006Ev, symObjAddr: 0xCA74, symBinAddr: 0x10000EA24, symSize: 0x2C }
  - { offsetInCU: 0x1ADBD, offset: 0x1ADBD, size: 0x8, addend: 0x0, symName: __ZNSt3__116__non_trivial_ifILb1ENS_9allocatorIcEEEC2B7v160006Ev, symObjAddr: 0xCAA0, symBinAddr: 0x10000EA50, symSize: 0x14 }
  - { offsetInCU: 0x1ADE7, offset: 0x1ADE7, size: 0x8, addend: 0x0, symName: __ZNKSt3__112basic_stringIcNS_11char_traitsIcEENS_9allocatorIcEEE13__get_pointerB7v160006Ev, symObjAddr: 0xCAC8, symBinAddr: 0x10000EA78, symSize: 0x54 }
  - { offsetInCU: 0x1AE0D, offset: 0x1AE0D, size: 0x8, addend: 0x0, symName: __ZNKSt3__112basic_stringIcNS_11char_traitsIcEENS_9allocatorIcEEE9__is_longB7v160006Ev, symObjAddr: 0xCB1C, symBinAddr: 0x10000EACC, symSize: 0x74 }
  - { offsetInCU: 0x1AE33, offset: 0x1AE33, size: 0x8, addend: 0x0, symName: __ZNKSt3__112basic_stringIcNS_11char_traitsIcEENS_9allocatorIcEEE18__get_long_pointerB7v160006Ev, symObjAddr: 0xCB90, symBinAddr: 0x10000EB40, symSize: 0x28 }
  - { offsetInCU: 0x1AE59, offset: 0x1AE59, size: 0x8, addend: 0x0, symName: __ZNKSt3__112basic_stringIcNS_11char_traitsIcEENS_9allocatorIcEEE19__get_short_pointerB7v160006Ev, symObjAddr: 0xCBB8, symBinAddr: 0x10000EB68, symSize: 0x28 }
  - { offsetInCU: 0x1AE7F, offset: 0x1AE7F, size: 0x8, addend: 0x0, symName: __ZNKSt3__117__compressed_pairINS_12basic_stringIcNS_11char_traitsIcEENS_9allocatorIcEEE5__repES5_E5firstB7v160006Ev, symObjAddr: 0xCBE0, symBinAddr: 0x10000EB90, symSize: 0x24 }
  - { offsetInCU: 0x1AEA5, offset: 0x1AEA5, size: 0x8, addend: 0x0, symName: __ZNKSt3__122__compressed_pair_elemINS_12basic_stringIcNS_11char_traitsIcEENS_9allocatorIcEEE5__repELi0ELb0EE5__getB7v160006Ev, symObjAddr: 0xCC04, symBinAddr: 0x10000EBB4, symSize: 0x14 }
  - { offsetInCU: 0x1AECB, offset: 0x1AECB, size: 0x8, addend: 0x0, symName: __ZNSt3__114pointer_traitsIPKcE10pointer_toB7v160006ERS1_, symObjAddr: 0xCC18, symBinAddr: 0x10000EBC8, symSize: 0x14 }
  - { offsetInCU: 0x1AEEE, offset: 0x1AEEE, size: 0x8, addend: 0x0, symName: __ZNSt3__119ostreambuf_iteratorIcNS_11char_traitsIcEEEC2B7v160006ERNS_13basic_ostreamIcS2_EE, symObjAddr: 0xCC2C, symBinAddr: 0x10000EBDC, symSize: 0x68 }
  - { offsetInCU: 0x1AF26, offset: 0x1AF26, size: 0x8, addend: 0x0, symName: __ZNKSt3__19basic_iosIcNS_11char_traitsIcEEE5rdbufB7v160006Ev, symObjAddr: 0xCC94, symBinAddr: 0x10000EC44, symSize: 0x24 }
  - { offsetInCU: 0x1AF4E, offset: 0x1AF4E, size: 0x8, addend: 0x0, symName: __ZNKSt3__18ios_base5rdbufB7v160006Ev, symObjAddr: 0xCCB8, symBinAddr: 0x10000EC68, symSize: 0x18 }
  - { offsetInCU: 0x1AF74, offset: 0x1AF74, size: 0x8, addend: 0x0, symName: __ZNSt3__111char_traitsIcE11eq_int_typeEii, symObjAddr: 0xCCD0, symBinAddr: 0x10000EC80, symSize: 0x28 }
  - { offsetInCU: 0x1AFA5, offset: 0x1AFA5, size: 0x8, addend: 0x0, symName: __ZNSt3__111char_traitsIcE3eofEv, symObjAddr: 0xCCF8, symBinAddr: 0x10000ECA8, symSize: 0x8 }
  - { offsetInCU: 0x1AFB9, offset: 0x1AFB9, size: 0x8, addend: 0x0, symName: __ZNSt3__18ios_base8setstateB7v160006Ej, symObjAddr: 0xCD00, symBinAddr: 0x10000ECB0, symSize: 0x34 }
...
