---
triple:          'arm64-apple-darwin'
binary-path:     '/Users/dawidpawliczek4/Studia/UWr/aisd/pracownie/1/output/chodnik-backtrack'
relocations:
  - { offsetInCU: 0x4CE1, offset: 0x4CE1, size: 0x8, addend: 0x0, symName: __ZNSt3__124__put_character_sequenceB7v160006IcNS_11char_traitsIcEEEERNS_13basic_ostreamIT_T0_EES7_PKS4_m, symObjAddr: 0x3A20, symBinAddr: 0x100006D90, symSize: 0x1F4 }
  - { offsetInCU: 0x6840, offset: 0x6840, size: 0x8, addend: 0x0, symName: __ZNSt3__14endlB7v160006IcNS_11char_traitsIcEEEERNS_13basic_ostreamIT_T0_EES7_, symObjAddr: 0x804, symBinAddr: 0x100003B74, symSize: 0x58 }
  - { offsetInCU: 0x6880, offset: 0x6880, size: 0x8, addend: 0x0, symName: __ZNSt3__1neB7v160006IP6KostkaEEbRKNS_11__wrap_iterIT_EES7_, symObjAddr: 0x88C, symBinAddr: 0x100003BFC, symSize: 0x34 }
  - { offsetInCU: 0x68C3, offset: 0x68C3, size: 0x8, addend: 0x0, symName: __ZNSt3__1lsB7v160006INS_11char_traitsIcEEEERNS_13basic_ostreamIcT_EES6_PKc, symObjAddr: 0x8D8, symBinAddr: 0x100003C48, symSize: 0x48 }
  - { offsetInCU: 0x6909, offset: 0x6909, size: 0x8, addend: 0x0, symName: __ZNSt3__112__to_addressB7v160006I6KostkaEEPT_S3_, symObjAddr: 0xBB0, symBinAddr: 0x100003F20, symSize: 0x14 }
  - { offsetInCU: 0x693E, offset: 0x693E, size: 0x8, addend: 0x0, symName: __ZNSt3__13maxB7v160006ImEERKT_S3_S3_, symObjAddr: 0xFD0, symBinAddr: 0x100004340, symSize: 0x2C }
  - { offsetInCU: 0x6981, offset: 0x6981, size: 0x8, addend: 0x0, symName: __ZNSt3__13minB7v160006ImEERKT_S3_S3_, symObjAddr: 0xFFC, symBinAddr: 0x10000436C, symSize: 0x2C }
  - { offsetInCU: 0x6BC5, offset: 0x6BC5, size: 0x8, addend: 0x0, symName: __ZNSt3__13minB7v160006ImNS_6__lessImmEEEERKT_S5_S5_T0_, symObjAddr: 0x1088, symBinAddr: 0x1000043F8, symSize: 0x54 }
  - { offsetInCU: 0x6C5A, offset: 0x6C5A, size: 0x8, addend: 0x0, symName: __ZNSt3__120__throw_length_errorB7v160006EPKc, symObjAddr: 0x1168, symBinAddr: 0x1000044D8, symSize: 0x64 }
  - { offsetInCU: 0x6C82, offset: 0x6C82, size: 0x8, addend: 0x0, symName: __ZNSt3__13maxB7v160006ImNS_6__lessImmEEEERKT_S5_S5_T0_, symObjAddr: 0x12AC, symBinAddr: 0x10000461C, symSize: 0x54 }
  - { offsetInCU: 0x6CDC, offset: 0x6CDC, size: 0x8, addend: 0x0, symName: __ZNSt3__119__allocate_at_leastB7v160006INS_9allocatorI6KostkaEEEENS_19__allocation_resultINS_16allocator_traitsIT_E7pointerEEERS6_m, symObjAddr: 0x141C, symBinAddr: 0x10000478C, symSize: 0x40 }
  - { offsetInCU: 0x6D1F, offset: 0x6D1F, size: 0x8, addend: 0x0, symName: __ZNSt3__130__libcpp_is_constant_evaluatedB7v160006Ev, symObjAddr: 0x15F0, symBinAddr: 0x100004960, symSize: 0xC }
  - { offsetInCU: 0x6D3C, offset: 0x6D3C, size: 0x8, addend: 0x0, symName: __ZNSt3__117__libcpp_allocateB7v160006Emm, symObjAddr: 0x15FC, symBinAddr: 0x10000496C, symSize: 0x28 }
  - { offsetInCU: 0x6D79, offset: 0x6D79, size: 0x8, addend: 0x0, symName: __ZNSt3__121__libcpp_operator_newB7v160006IJmEEEPvDpT_, symObjAddr: 0x1624, symBinAddr: 0x100004994, symSize: 0x24 }
  - { offsetInCU: 0x6DB2, offset: 0x6DB2, size: 0x8, addend: 0x0, symName: __ZNSt3__142__uninitialized_allocator_move_if_noexceptB7v160006INS_9allocatorI6KostkaEENS_16reverse_iteratorIPS2_EES6_S2_vEET1_RT_T0_SA_S7_, symObjAddr: 0x1780, symBinAddr: 0x100004AF0, symSize: 0xE8 }
  - { offsetInCU: 0x6E2F, offset: 0x6E2F, size: 0x8, addend: 0x0, symName: __ZNSt3__14swapB7v160006IP6KostkaEEvRT_S4_, symObjAddr: 0x18B4, symBinAddr: 0x100004C24, symSize: 0x3C }
  - { offsetInCU: 0x6E80, offset: 0x6E80, size: 0x8, addend: 0x0, symName: __ZNSt3__125__debug_db_invalidate_allB7v160006INS_6vectorI6KostkaNS_9allocatorIS2_EEEEEEvPT_, symObjAddr: 0x19B8, symBinAddr: 0x100004D28, symSize: 0x10 }
  - { offsetInCU: 0x6EB1, offset: 0x6EB1, size: 0x8, addend: 0x0, symName: __ZNSt3__1neB7v160006IP6KostkaS2_EEbRKNS_16reverse_iteratorIT_EERKNS3_IT0_EE, symObjAddr: 0x1A10, symBinAddr: 0x100004D80, symSize: 0x48 }
  - { offsetInCU: 0x6F22, offset: 0x6F22, size: 0x8, addend: 0x0, symName: __ZNSt3__114__construct_atB7v160006I6KostkaJS1_EPS1_EEPT_S4_DpOT0_, symObjAddr: 0x1A58, symBinAddr: 0x100004DC8, symSize: 0x34 }
  - { offsetInCU: 0x6F92, offset: 0x6F92, size: 0x8, addend: 0x0, symName: __ZNSt3__112__to_addressB7v160006INS_16reverse_iteratorIP6KostkaEEvEENS_5decayIDTclsr19__to_address_helperIT_EE6__callclsr3stdE7declvalIRKS6_EEEEE4typeES8_, symObjAddr: 0x1A8C, symBinAddr: 0x100004DFC, symSize: 0x24 }
  - { offsetInCU: 0x6FC8, offset: 0x6FC8, size: 0x8, addend: 0x0, symName: __ZNSt3__14moveB7v160006INS_16reverse_iteratorIP6KostkaEES4_EET0_T_S6_S5_, symObjAddr: 0x1AF8, symBinAddr: 0x100004E68, symSize: 0x78 }
  - { offsetInCU: 0x704B, offset: 0x704B, size: 0x8, addend: 0x0, symName: __ZNSt3__16__moveB7v160006INS_17_ClassicAlgPolicyENS_16reverse_iteratorIP6KostkaEES5_S5_EENS_4pairIT0_T2_EES7_T1_S8_, symObjAddr: 0x1BE0, symBinAddr: 0x100004F50, symSize: 0x64 }
  - { offsetInCU: 0x70B7, offset: 0x70B7, size: 0x8, addend: 0x0, symName: __ZNSt3__123__dispatch_copy_or_moveB7v160006INS_17_ClassicAlgPolicyENS_11__move_loopIS1_EENS_14__move_trivialENS_16reverse_iteratorIP6KostkaEES8_S8_EENS_4pairIT2_T4_EESA_T3_SB_, symObjAddr: 0x1C44, symBinAddr: 0x100004FB4, symSize: 0x7C }
  - { offsetInCU: 0x7135, offset: 0x7135, size: 0x8, addend: 0x0, symName: __ZNSt3__121__unwrap_and_dispatchB7v160006INS_10__overloadINS_11__move_loopINS_17_ClassicAlgPolicyEEENS_14__move_trivialEEENS_16reverse_iteratorIP6KostkaEESA_SA_Li0EEENS_4pairIT0_T2_EESC_T1_SD_, symObjAddr: 0x1CC0, symBinAddr: 0x100005030, symSize: 0x12C }
  - { offsetInCU: 0x71C5, offset: 0x71C5, size: 0x8, addend: 0x0, symName: __ZNSt3__114__unwrap_rangeB7v160006INS_16reverse_iteratorIP6KostkaEES4_EENS_4pairIT0_S6_EET_S8_, symObjAddr: 0x1DEC, symBinAddr: 0x10000515C, symSize: 0x84 }
  - { offsetInCU: 0x7319, offset: 0x7319, size: 0x8, addend: 0x0, symName: __ZNSt3__113__unwrap_iterB7v160006INS_16reverse_iteratorIP6KostkaEENS_18__unwrap_iter_implIS4_Lb0EEELi0EEEDTclsrT0_8__unwrapclsr3stdE7declvalIT_EEEES8_, symObjAddr: 0x1F18, symBinAddr: 0x100005288, symSize: 0x44 }
  - { offsetInCU: 0x735D, offset: 0x735D, size: 0x8, addend: 0x0, symName: __ZNSt3__19make_pairB7v160006INS_16reverse_iteratorIP6KostkaEES4_EENS_4pairINS_18__unwrap_ref_decayIT_E4typeENS6_IT0_E4typeEEEOS7_OSA_, symObjAddr: 0x1F5C, symBinAddr: 0x1000052CC, symSize: 0x38 }
  - { offsetInCU: 0x73AC, offset: 0x73AC, size: 0x8, addend: 0x0, symName: __ZNSt3__114__rewrap_rangeB7v160006INS_16reverse_iteratorIP6KostkaEES4_EET_S5_T0_, symObjAddr: 0x1F94, symBinAddr: 0x100005304, symSize: 0x5C }
  - { offsetInCU: 0x73F8, offset: 0x73F8, size: 0x8, addend: 0x0, symName: __ZNSt3__113__rewrap_iterB7v160006INS_16reverse_iteratorIP6KostkaEES4_NS_18__unwrap_iter_implIS4_Lb0EEEEET_S7_T0_, symObjAddr: 0x1FF0, symBinAddr: 0x100005360, symSize: 0x88 }
  - { offsetInCU: 0x74FF, offset: 0x74FF, size: 0x8, addend: 0x0, symName: __ZNSt3__119__libcpp_deallocateB7v160006EPvmm, symObjAddr: 0x241C, symBinAddr: 0x10000578C, symSize: 0x30 }
  - { offsetInCU: 0x7547, offset: 0x7547, size: 0x8, addend: 0x0, symName: __ZNSt3__127__do_deallocate_handle_sizeB7v160006IJEEEvPvmDpT_, symObjAddr: 0x244C, symBinAddr: 0x1000057BC, symSize: 0x28 }
  - { offsetInCU: 0x7585, offset: 0x7585, size: 0x8, addend: 0x0, symName: __ZNSt3__124__libcpp_operator_deleteB7v160006IJPvEEEvDpT_, symObjAddr: 0x2474, symBinAddr: 0x1000057E4, symSize: 0x24 }
  - { offsetInCU: 0x75BA, offset: 0x75BA, size: 0x8, addend: 0x0, symName: __ZNSt3__1miB7v160006IPK6KostkaS3_EENS_11__wrap_iterIT_E15difference_typeERKS6_RKNS4_IT0_EE, symObjAddr: 0x25A8, symBinAddr: 0x100005918, symSize: 0x48 }
  - { offsetInCU: 0x7606, offset: 0x7606, size: 0x8, addend: 0x0, symName: __ZNSt3__14moveB7v160006IP6KostkaS2_EET0_T_S4_S3_, symObjAddr: 0x26A4, symBinAddr: 0x100005A14, symSize: 0x40 }
  - { offsetInCU: 0x7660, offset: 0x7660, size: 0x8, addend: 0x0, symName: __ZNSt3__16__moveB7v160006INS_17_ClassicAlgPolicyEP6KostkaS3_S3_EENS_4pairIT0_T2_EES5_T1_S6_, symObjAddr: 0x2944, symBinAddr: 0x100005CB4, symSize: 0x44 }
  - { offsetInCU: 0x76CC, offset: 0x76CC, size: 0x8, addend: 0x0, symName: __ZNSt3__123__dispatch_copy_or_moveB7v160006INS_17_ClassicAlgPolicyENS_11__move_loopIS1_EENS_14__move_trivialEP6KostkaS6_S6_EENS_4pairIT2_T4_EES8_T3_S9_, symObjAddr: 0x2988, symBinAddr: 0x100005CF8, symSize: 0x54 }
  - { offsetInCU: 0x774A, offset: 0x774A, size: 0x8, addend: 0x0, symName: __ZNSt3__121__unwrap_and_dispatchB7v160006INS_10__overloadINS_11__move_loopINS_17_ClassicAlgPolicyEEENS_14__move_trivialEEEP6KostkaS8_S8_Li0EEENS_4pairIT0_T2_EESA_T1_SB_, symObjAddr: 0x29DC, symBinAddr: 0x100005D4C, symSize: 0xB4 }
  - { offsetInCU: 0x77D8, offset: 0x77D8, size: 0x8, addend: 0x0, symName: __ZNSt3__114__unwrap_rangeB7v160006IP6KostkaS2_EENS_4pairIT0_S4_EET_S6_, symObjAddr: 0x2A90, symBinAddr: 0x100005E00, symSize: 0x60 }
  - { offsetInCU: 0x7917, offset: 0x7917, size: 0x8, addend: 0x0, symName: __ZNSt3__113__unwrap_iterB7v160006IP6KostkaNS_18__unwrap_iter_implIS2_Lb1EEELi0EEEDTclsrT0_8__unwrapclsr3stdE7declvalIT_EEEES6_, symObjAddr: 0x2B38, symBinAddr: 0x100005EA8, symSize: 0x24 }
  - { offsetInCU: 0x795B, offset: 0x795B, size: 0x8, addend: 0x0, symName: __ZNSt3__19make_pairB7v160006IP6KostkaS2_EENS_4pairINS_18__unwrap_ref_decayIT_E4typeENS4_IT0_E4typeEEEOS5_OS8_, symObjAddr: 0x2B5C, symBinAddr: 0x100005ECC, symSize: 0x38 }
  - { offsetInCU: 0x79AA, offset: 0x79AA, size: 0x8, addend: 0x0, symName: __ZNSt3__114__rewrap_rangeB7v160006IP6KostkaS2_EET_S3_T0_, symObjAddr: 0x2B94, symBinAddr: 0x100005F04, symSize: 0x2C }
  - { offsetInCU: 0x79F6, offset: 0x79F6, size: 0x8, addend: 0x0, symName: __ZNSt3__113__rewrap_iterB7v160006IP6KostkaS2_NS_18__unwrap_iter_implIS2_Lb1EEEEET_S5_T0_, symObjAddr: 0x2BC0, symBinAddr: 0x100005F30, symSize: 0x50 }
  - { offsetInCU: 0x7A4B, offset: 0x7A4B, size: 0x8, addend: 0x0, symName: __ZNSt3__119__copy_trivial_implB7v160006I6KostkaS1_EENS_4pairIPT_PT0_EES4_S4_S6_, symObjAddr: 0x2C10, symBinAddr: 0x100005F80, symSize: 0x8C }
  - { offsetInCU: 0x7AB3, offset: 0x7AB3, size: 0x8, addend: 0x0, symName: __ZNSt3__19make_pairB7v160006IRP6KostkaS2_EENS_4pairINS_18__unwrap_ref_decayIT_E4typeENS5_IT0_E4typeEEEOS6_OS9_, symObjAddr: 0x2C9C, symBinAddr: 0x10000600C, symSize: 0x38 }
  - { offsetInCU: 0x7B55, offset: 0x7B55, size: 0x8, addend: 0x0, symName: __ZNSt3__122__make_exception_guardB7v160006INS_6vectorI6KostkaNS_9allocatorIS2_EEE16__destroy_vectorEEENS_28__exception_guard_exceptionsIT_EES8_, symObjAddr: 0x2F80, symBinAddr: 0x1000062F0, symSize: 0x40 }
  - { offsetInCU: 0x7B8A, offset: 0x7B8A, size: 0x8, addend: 0x0, symName: __ZNSt3__119__debug_db_insert_cB7v160006INS_6vectorI6KostkaNS_9allocatorIS2_EEEEEEvPT_, symObjAddr: 0x2FF4, symBinAddr: 0x100006364, symSize: 0x10 }
  - { offsetInCU: 0x7BBB, offset: 0x7BBB, size: 0x8, addend: 0x0, symName: __ZNSt3__130__uninitialized_allocator_copyB7v160006INS_9allocatorI6KostkaEEPS2_S4_S4_EET2_RT_T0_T1_S5_, symObjAddr: 0x3268, symBinAddr: 0x1000065D8, symSize: 0xFC }
  - { offsetInCU: 0x7C59, offset: 0x7C59, size: 0x8, addend: 0x0, symName: __ZNSt3__122__make_exception_guardB7v160006INS_29_AllocatorDestroyRangeReverseINS_9allocatorI6KostkaEEPS3_EEEENS_28__exception_guard_exceptionsIT_EES8_, symObjAddr: 0x3364, symBinAddr: 0x1000066D4, symSize: 0x4C }
  - { offsetInCU: 0x7C8F, offset: 0x7C8F, size: 0x8, addend: 0x0, symName: __ZNSt3__119__allocator_destroyB7v160006INS_9allocatorI6KostkaEENS_16reverse_iteratorIPS2_EES6_EEvRT_T0_T1_, symObjAddr: 0x35EC, symBinAddr: 0x10000695C, symSize: 0x70 }
  - { offsetInCU: 0x7CF2, offset: 0x7CF2, size: 0x8, addend: 0x0, symName: __ZNSt3__118__debug_db_erase_cB7v160006INS_6vectorI6KostkaNS_9allocatorIS2_EEEEEEvPT_, symObjAddr: 0x3740, symBinAddr: 0x100006AB0, symSize: 0x10 }
  - { offsetInCU: 0x7D23, offset: 0x7D23, size: 0x8, addend: 0x0, symName: __ZNSt3__19use_facetB7v160006INS_5ctypeIcEEEERKT_RKNS_6localeE, symObjAddr: 0x3974, symBinAddr: 0x100006CE4, symSize: 0x2C }
  - { offsetInCU: 0x81F2, offset: 0x81F2, size: 0x8, addend: 0x0, symName: __ZNSt3__1eqB7v160006IP6KostkaEEbRKNS_11__wrap_iterIT_EES7_, symObjAddr: 0x39D8, symBinAddr: 0x100006D48, symSize: 0x48 }
  - { offsetInCU: 0x8235, offset: 0x8235, size: 0x8, addend: 0x0, symName: __ZNSt3__116__pad_and_outputB7v160006IcNS_11char_traitsIcEEEENS_19ostreambuf_iteratorIT_T0_EES6_PKS4_S8_S8_RNS_8ios_baseES4_, symObjAddr: 0x3C78, symBinAddr: 0x100006FE8, symSize: 0x248 }
  - { offsetInCU: 0x8304, offset: 0x8304, size: 0x8, addend: 0x0, symName: __ZNSt3__119__debug_db_insert_cB7v160006INS_12basic_stringIcNS_11char_traitsIcEENS_9allocatorIcEEEEEEvPT_, symObjAddr: 0x4134, symBinAddr: 0x1000074A4, symSize: 0x10 }
  - { offsetInCU: 0x8335, offset: 0x8335, size: 0x8, addend: 0x0, symName: __ZNSt3__112__to_addressB7v160006IKcEEPT_S3_, symObjAddr: 0x4200, symBinAddr: 0x100007570, symSize: 0x14 }
  - { offsetInCU: 0x839D, offset: 0x839D, size: 0x8, addend: 0x0, symName: __ZNSt3__118__constexpr_strlenB7v160006EPKc, symObjAddr: 0x4480, symBinAddr: 0x1000077F0, symSize: 0x24 }
  - { offsetInCU: 0x859E, offset: 0x859E, size: 0x8, addend: 0x0, symName: __ZSt28__throw_bad_array_new_lengthB7v160006v, symObjAddr: 0x15BC, symBinAddr: 0x10000492C, symSize: 0x34 }
  - { offsetInCU: 0x8A77, offset: 0x8A77, size: 0x8, addend: 0x0, symName: __ZNSt3__16vectorI6KostkaNS_9allocatorIS1_EEE26__swap_out_circular_bufferERNS_14__split_bufferIS1_RS3_EE, symObjAddr: 0xDBC, symBinAddr: 0x10000412C, symSize: 0x118 }
  - { offsetInCU: 0xADEB, offset: 0xADEB, size: 0x8, addend: 0x0, symName: __Z15znajdzChodnikBTNSt3__16vectorI6KostkaNS_9allocatorIS1_EEEEiRS4_, symObjAddr: 0x0, symBinAddr: 0x100003370, symSize: 0x1CC }
  - { offsetInCU: 0xAE5D, offset: 0xAE5D, size: 0x8, addend: 0x0, symName: __ZNKSt3__16vectorI6KostkaNS_9allocatorIS1_EEE5emptyB7v160006Ev, symObjAddr: 0x1CC, symBinAddr: 0x10000353C, symSize: 0x28 }
  - { offsetInCU: 0xAE82, offset: 0xAE82, size: 0x8, addend: 0x0, symName: __ZNKSt3__16vectorI6KostkaNS_9allocatorIS1_EEE4sizeB7v160006Ev, symObjAddr: 0x1F4, symBinAddr: 0x100003564, symSize: 0x28 }
  - { offsetInCU: 0xAEA7, offset: 0xAEA7, size: 0x8, addend: 0x0, symName: __ZNSt3__16vectorI6KostkaNS_9allocatorIS1_EEEixB7v160006Em, symObjAddr: 0x21C, symBinAddr: 0x10000358C, symSize: 0x2C }
  - { offsetInCU: 0xAEDC, offset: 0xAEDC, size: 0x8, addend: 0x0, symName: __ZNSt3__16vectorI6KostkaNS_9allocatorIS1_EEE9push_backB7v160006ERKS1_, symObjAddr: 0x248, symBinAddr: 0x1000035B8, symSize: 0x6C }
  - { offsetInCU: 0xAF11, offset: 0xAF11, size: 0x8, addend: 0x0, symName: __ZNSt3__16vectorI6KostkaNS_9allocatorIS1_EEE5eraseB7v160006ENS_11__wrap_iterIPKS1_EE, symObjAddr: 0x2B4, symBinAddr: 0x100003624, symSize: 0xBC }
  - { offsetInCU: 0xAF64, offset: 0xAF64, size: 0x8, addend: 0x0, symName: __ZNSt3__16vectorI6KostkaNS_9allocatorIS1_EEE5beginB7v160006Ev, symObjAddr: 0x370, symBinAddr: 0x1000036E0, symSize: 0x30 }
  - { offsetInCU: 0xAF8B, offset: 0xAF8B, size: 0x8, addend: 0x0, symName: __ZNKSt3__111__wrap_iterIP6KostkaEplB7v160006El, symObjAddr: 0x3A0, symBinAddr: 0x100003710, symSize: 0x3C }
  - { offsetInCU: 0xAFD6, offset: 0xAFD6, size: 0x8, addend: 0x0, symName: __ZNSt3__111__wrap_iterIPK6KostkaEC1B7v160006IPS1_EERKNS0_IT_EEPNS_9enable_ifIXsr14is_convertibleIS7_S3_EE5valueEvE4typeE, symObjAddr: 0x3DC, symBinAddr: 0x10000374C, symSize: 0x3C }
  - { offsetInCU: 0xB021, offset: 0xB021, size: 0x8, addend: 0x0, symName: __ZNSt3__16vectorI6KostkaNS_9allocatorIS1_EEEC1ERKS4_, symObjAddr: 0x418, symBinAddr: 0x100003788, symSize: 0x34 }
  - { offsetInCU: 0xB05B, offset: 0xB05B, size: 0x8, addend: 0x0, symName: __ZNSt3__16vectorI6KostkaNS_9allocatorIS1_EEED1B7v160006Ev, symObjAddr: 0x44C, symBinAddr: 0x1000037BC, symSize: 0x2C }
  - { offsetInCU: 0xB083, offset: 0xB083, size: 0x8, addend: 0x0, symName: __ZNSt3__16vectorI6KostkaNS_9allocatorIS1_EEE8pop_backEv, symObjAddr: 0x484, symBinAddr: 0x1000037F4, symSize: 0x2C }
  - { offsetInCU: 0xB0AA, offset: 0xB0AA, size: 0x8, addend: 0x0, symName: _main, symObjAddr: 0x4B0, symBinAddr: 0x100003820, symSize: 0x2FC }
  - { offsetInCU: 0xB1B0, offset: 0xB1B0, size: 0x8, addend: 0x0, symName: __ZNSt3__16vectorI6KostkaNS_9allocatorIS1_EEEC1B7v160006Ev, symObjAddr: 0x7AC, symBinAddr: 0x100003B1C, symSize: 0x2C }
  - { offsetInCU: 0xB1D9, offset: 0xB1D9, size: 0x8, addend: 0x0, symName: __ZNSt3__113basic_ostreamIcNS_11char_traitsIcEEElsB7v160006EPFRS3_S4_E, symObjAddr: 0x7D8, symBinAddr: 0x100003B48, symSize: 0x2C }
  - { offsetInCU: 0xB20B, offset: 0xB20B, size: 0x8, addend: 0x0, symName: __ZNSt3__16vectorI6KostkaNS_9allocatorIS1_EEE3endB7v160006Ev, symObjAddr: 0x85C, symBinAddr: 0x100003BCC, symSize: 0x30 }
  - { offsetInCU: 0xB232, offset: 0xB232, size: 0x8, addend: 0x0, symName: __ZNKSt3__111__wrap_iterIP6KostkaEdeB7v160006Ev, symObjAddr: 0x8C0, symBinAddr: 0x100003C30, symSize: 0x18 }
  - { offsetInCU: 0xB257, offset: 0xB257, size: 0x8, addend: 0x0, symName: __ZNSt3__111__wrap_iterIP6KostkaEppB7v160006Ev, symObjAddr: 0x920, symBinAddr: 0x100003C90, symSize: 0x20 }
  - { offsetInCU: 0xB27C, offset: 0xB27C, size: 0x8, addend: 0x0, symName: __ZNSt3__16vectorI6KostkaNS_9allocatorIS1_EEE9__end_capB7v160006Ev, symObjAddr: 0x940, symBinAddr: 0x100003CB0, symSize: 0x28 }
  - { offsetInCU: 0xB2A1, offset: 0xB2A1, size: 0x8, addend: 0x0, symName: __ZNSt3__16vectorI6KostkaNS_9allocatorIS1_EEE22__construct_one_at_endB7v160006IJRKS1_EEEvDpOT_, symObjAddr: 0x968, symBinAddr: 0x100003CD8, symSize: 0x98 }
  - { offsetInCU: 0xB2EE, offset: 0xB2EE, size: 0x8, addend: 0x0, symName: __ZNSt3__16vectorI6KostkaNS_9allocatorIS1_EEE21__push_back_slow_pathIRKS1_EEvOT_, symObjAddr: 0xA00, symBinAddr: 0x100003D70, symSize: 0xE0 }
  - { offsetInCU: 0xB34B, offset: 0xB34B, size: 0x8, addend: 0x0, symName: __ZNSt3__117__compressed_pairIP6KostkaNS_9allocatorIS1_EEE5firstB7v160006Ev, symObjAddr: 0xAE0, symBinAddr: 0x100003E50, symSize: 0x24 }
  - { offsetInCU: 0xB370, offset: 0xB370, size: 0x8, addend: 0x0, symName: __ZNSt3__122__compressed_pair_elemIP6KostkaLi0ELb0EE5__getB7v160006Ev, symObjAddr: 0xB04, symBinAddr: 0x100003E74, symSize: 0x14 }
  - { offsetInCU: 0xB3AE, offset: 0xB3AE, size: 0x8, addend: 0x0, symName: __ZNSt3__16vectorI6KostkaNS_9allocatorIS1_EEE21_ConstructTransactionC1B7v160006ERS4_m, symObjAddr: 0xB18, symBinAddr: 0x100003E88, symSize: 0x3C }
  - { offsetInCU: 0xB3F5, offset: 0xB3F5, size: 0x8, addend: 0x0, symName: __ZNSt3__116allocator_traitsINS_9allocatorI6KostkaEEE9constructB7v160006IS2_JRKS2_EvEEvRS3_PT_DpOT0_, symObjAddr: 0xB54, symBinAddr: 0x100003EC4, symSize: 0x34 }
  - { offsetInCU: 0xB44C, offset: 0xB44C, size: 0x8, addend: 0x0, symName: __ZNSt3__16vectorI6KostkaNS_9allocatorIS1_EEE7__allocB7v160006Ev, symObjAddr: 0xB88, symBinAddr: 0x100003EF8, symSize: 0x28 }
  - { offsetInCU: 0xB471, offset: 0xB471, size: 0x8, addend: 0x0, symName: __ZNSt3__16vectorI6KostkaNS_9allocatorIS1_EEE21_ConstructTransactionD1B7v160006Ev, symObjAddr: 0xBC4, symBinAddr: 0x100003F34, symSize: 0x2C }
  - { offsetInCU: 0xB49A, offset: 0xB49A, size: 0x8, addend: 0x0, symName: __ZNSt3__16vectorI6KostkaNS_9allocatorIS1_EEE21_ConstructTransactionC2B7v160006ERS4_m, symObjAddr: 0xBF0, symBinAddr: 0x100003F60, symSize: 0x4C }
  - { offsetInCU: 0xB4E1, offset: 0xB4E1, size: 0x8, addend: 0x0, symName: __ZNSt3__19allocatorI6KostkaE9constructB7v160006IS1_JRKS1_EEEvPT_DpOT0_, symObjAddr: 0xC3C, symBinAddr: 0x100003FAC, symSize: 0x30 }
  - { offsetInCU: 0xB536, offset: 0xB536, size: 0x8, addend: 0x0, symName: __ZNSt3__117__compressed_pairIP6KostkaNS_9allocatorIS1_EEE6secondB7v160006Ev, symObjAddr: 0xC6C, symBinAddr: 0x100003FDC, symSize: 0x24 }
  - { offsetInCU: 0xB55B, offset: 0xB55B, size: 0x8, addend: 0x0, symName: __ZNSt3__122__compressed_pair_elemINS_9allocatorI6KostkaEELi1ELb1EE5__getB7v160006Ev, symObjAddr: 0xC90, symBinAddr: 0x100004000, symSize: 0x14 }
  - { offsetInCU: 0xB580, offset: 0xB580, size: 0x8, addend: 0x0, symName: __ZNSt3__16vectorI6KostkaNS_9allocatorIS1_EEE21_ConstructTransactionD2B7v160006Ev, symObjAddr: 0xCA4, symBinAddr: 0x100004014, symSize: 0x20 }
  - { offsetInCU: 0xB5A8, offset: 0xB5A8, size: 0x8, addend: 0x0, symName: __ZNKSt3__16vectorI6KostkaNS_9allocatorIS1_EEE11__recommendB7v160006Em, symObjAddr: 0xCC4, symBinAddr: 0x100004034, symSize: 0xB4 }
  - { offsetInCU: 0xB5FC, offset: 0xB5FC, size: 0x8, addend: 0x0, symName: __ZNSt3__114__split_bufferI6KostkaRNS_9allocatorIS1_EEEC1EmmS4_, symObjAddr: 0xD78, symBinAddr: 0x1000040E8, symSize: 0x44 }
  - { offsetInCU: 0xB651, offset: 0xB651, size: 0x8, addend: 0x0, symName: __ZNSt3__114__split_bufferI6KostkaRNS_9allocatorIS1_EEED1Ev, symObjAddr: 0xED4, symBinAddr: 0x100004244, symSize: 0x2C }
  - { offsetInCU: 0xB67B, offset: 0xB67B, size: 0x8, addend: 0x0, symName: __ZNKSt3__16vectorI6KostkaNS_9allocatorIS1_EEE8max_sizeEv, symObjAddr: 0xF00, symBinAddr: 0x100004270, symSize: 0x74 }
  - { offsetInCU: 0xB6A2, offset: 0xB6A2, size: 0x8, addend: 0x0, symName: __ZNKSt3__16vectorI6KostkaNS_9allocatorIS1_EEE20__throw_length_errorB7v160006Ev, symObjAddr: 0xF74, symBinAddr: 0x1000042E4, symSize: 0x1C }
  - { offsetInCU: 0xB6C7, offset: 0xB6C7, size: 0x8, addend: 0x0, symName: __ZNKSt3__16vectorI6KostkaNS_9allocatorIS1_EEE8capacityB7v160006Ev, symObjAddr: 0xF90, symBinAddr: 0x100004300, symSize: 0x40 }
  - { offsetInCU: 0xB6F6, offset: 0xB6F6, size: 0x8, addend: 0x0, symName: __ZNSt3__116allocator_traitsINS_9allocatorI6KostkaEEE8max_sizeB7v160006IS3_vEEmRKS3_, symObjAddr: 0x1028, symBinAddr: 0x100004398, symSize: 0x24 }
  - { offsetInCU: 0xB724, offset: 0xB724, size: 0x8, addend: 0x0, symName: __ZNKSt3__16vectorI6KostkaNS_9allocatorIS1_EEE7__allocB7v160006Ev, symObjAddr: 0x104C, symBinAddr: 0x1000043BC, symSize: 0x28 }
  - { offsetInCU: 0xB749, offset: 0xB749, size: 0x8, addend: 0x0, symName: __ZNSt3__114numeric_limitsIlE3maxB7v160006Ev, symObjAddr: 0x1074, symBinAddr: 0x1000043E4, symSize: 0x14 }
  - { offsetInCU: 0xB771, offset: 0xB771, size: 0x8, addend: 0x0, symName: __ZNKSt3__16__lessImmEclB7v160006ERKmS3_, symObjAddr: 0x10DC, symBinAddr: 0x10000444C, symSize: 0x34 }
  - { offsetInCU: 0xB7B2, offset: 0xB7B2, size: 0x8, addend: 0x0, symName: __ZNKSt3__19allocatorI6KostkaE8max_sizeB7v160006Ev, symObjAddr: 0x1110, symBinAddr: 0x100004480, symSize: 0x18 }
  - { offsetInCU: 0xB7D7, offset: 0xB7D7, size: 0x8, addend: 0x0, symName: __ZNKSt3__117__compressed_pairIP6KostkaNS_9allocatorIS1_EEE6secondB7v160006Ev, symObjAddr: 0x1128, symBinAddr: 0x100004498, symSize: 0x24 }
  - { offsetInCU: 0xB7FC, offset: 0xB7FC, size: 0x8, addend: 0x0, symName: __ZNKSt3__122__compressed_pair_elemINS_9allocatorI6KostkaEELi1ELb1EE5__getB7v160006Ev, symObjAddr: 0x114C, symBinAddr: 0x1000044BC, symSize: 0x14 }
  - { offsetInCU: 0xB821, offset: 0xB821, size: 0x8, addend: 0x0, symName: __ZNSt3__123__libcpp_numeric_limitsIlLb1EE3maxB7v160006Ev, symObjAddr: 0x1160, symBinAddr: 0x1000044D0, symSize: 0x8 }
  - { offsetInCU: 0xB835, offset: 0xB835, size: 0x8, addend: 0x0, symName: __ZNSt12length_errorC1B7v160006EPKc, symObjAddr: 0x11CC, symBinAddr: 0x10000453C, symSize: 0x34 }
  - { offsetInCU: 0xB86C, offset: 0xB86C, size: 0x8, addend: 0x0, symName: __ZNSt12length_errorC2B7v160006EPKc, symObjAddr: 0x1200, symBinAddr: 0x100004570, symSize: 0x4C }
  - { offsetInCU: 0xB8A3, offset: 0xB8A3, size: 0x8, addend: 0x0, symName: __ZNKSt3__16vectorI6KostkaNS_9allocatorIS1_EEE9__end_capB7v160006Ev, symObjAddr: 0x124C, symBinAddr: 0x1000045BC, symSize: 0x28 }
  - { offsetInCU: 0xB8C8, offset: 0xB8C8, size: 0x8, addend: 0x0, symName: __ZNKSt3__117__compressed_pairIP6KostkaNS_9allocatorIS1_EEE5firstB7v160006Ev, symObjAddr: 0x1274, symBinAddr: 0x1000045E4, symSize: 0x24 }
  - { offsetInCU: 0xB8ED, offset: 0xB8ED, size: 0x8, addend: 0x0, symName: __ZNKSt3__122__compressed_pair_elemIP6KostkaLi0ELb0EE5__getB7v160006Ev, symObjAddr: 0x1298, symBinAddr: 0x100004608, symSize: 0x14 }
  - { offsetInCU: 0xB912, offset: 0xB912, size: 0x8, addend: 0x0, symName: __ZNSt3__114__split_bufferI6KostkaRNS_9allocatorIS1_EEEC2EmmS4_, symObjAddr: 0x1300, symBinAddr: 0x100004670, symSize: 0xE0 }
  - { offsetInCU: 0xB98A, offset: 0xB98A, size: 0x8, addend: 0x0, symName: __ZNSt3__117__compressed_pairIP6KostkaRNS_9allocatorIS1_EEEC1B7v160006IDnS5_EEOT_OT0_, symObjAddr: 0x13E0, symBinAddr: 0x100004750, symSize: 0x3C }
  - { offsetInCU: 0xB9E1, offset: 0xB9E1, size: 0x8, addend: 0x0, symName: __ZNSt3__114__split_bufferI6KostkaRNS_9allocatorIS1_EEE7__allocB7v160006Ev, symObjAddr: 0x145C, symBinAddr: 0x1000047CC, symSize: 0x28 }
  - { offsetInCU: 0xBA06, offset: 0xBA06, size: 0x8, addend: 0x0, symName: __ZNSt3__114__split_bufferI6KostkaRNS_9allocatorIS1_EEE9__end_capB7v160006Ev, symObjAddr: 0x1484, symBinAddr: 0x1000047F4, symSize: 0x28 }
  - { offsetInCU: 0xBA2B, offset: 0xBA2B, size: 0x8, addend: 0x0, symName: __ZNSt3__117__compressed_pairIP6KostkaRNS_9allocatorIS1_EEEC2B7v160006IDnS5_EEOT_OT0_, symObjAddr: 0x14AC, symBinAddr: 0x10000481C, symSize: 0x48 }
  - { offsetInCU: 0xBA82, offset: 0xBA82, size: 0x8, addend: 0x0, symName: __ZNSt3__122__compressed_pair_elemIP6KostkaLi0ELb0EEC2B7v160006IDnvEEOT_, symObjAddr: 0x14F4, symBinAddr: 0x100004864, symSize: 0x1C }
  - { offsetInCU: 0xBAC3, offset: 0xBAC3, size: 0x8, addend: 0x0, symName: __ZNSt3__122__compressed_pair_elemIRNS_9allocatorI6KostkaEELi1ELb0EEC2B7v160006IS4_vEEOT_, symObjAddr: 0x1510, symBinAddr: 0x100004880, symSize: 0x20 }
  - { offsetInCU: 0xBB04, offset: 0xBB04, size: 0x8, addend: 0x0, symName: __ZNSt3__19allocatorI6KostkaE8allocateB7v160006Em, symObjAddr: 0x1530, symBinAddr: 0x1000048A0, symSize: 0x8C }
  - { offsetInCU: 0xBB37, offset: 0xBB37, size: 0x8, addend: 0x0, symName: __ZNSt3__117__compressed_pairIP6KostkaRNS_9allocatorIS1_EEE6secondB7v160006Ev, symObjAddr: 0x1648, symBinAddr: 0x1000049B8, symSize: 0x28 }
  - { offsetInCU: 0xBB5C, offset: 0xBB5C, size: 0x8, addend: 0x0, symName: __ZNSt3__122__compressed_pair_elemIRNS_9allocatorI6KostkaEELi1ELb0EE5__getB7v160006Ev, symObjAddr: 0x1670, symBinAddr: 0x1000049E0, symSize: 0x18 }
  - { offsetInCU: 0xBB81, offset: 0xBB81, size: 0x8, addend: 0x0, symName: __ZNSt3__117__compressed_pairIP6KostkaRNS_9allocatorIS1_EEE5firstB7v160006Ev, symObjAddr: 0x1688, symBinAddr: 0x1000049F8, symSize: 0x24 }
  - { offsetInCU: 0xBBA6, offset: 0xBBA6, size: 0x8, addend: 0x0, symName: __ZNKSt3__16vectorI6KostkaNS_9allocatorIS1_EEE17__annotate_deleteB7v160006Ev, symObjAddr: 0x16AC, symBinAddr: 0x100004A1C, symSize: 0xD4 }
  - { offsetInCU: 0xBBCB, offset: 0xBBCB, size: 0x8, addend: 0x0, symName: __ZNSt3__116reverse_iteratorIP6KostkaEC1B7v160006ES2_, symObjAddr: 0x1868, symBinAddr: 0x100004BD8, symSize: 0x34 }
  - { offsetInCU: 0xBC02, offset: 0xBC02, size: 0x8, addend: 0x0, symName: __ZNKSt3__116reverse_iteratorIP6KostkaE4baseB7v160006Ev, symObjAddr: 0x189C, symBinAddr: 0x100004C0C, symSize: 0x18 }
  - { offsetInCU: 0xBC27, offset: 0xBC27, size: 0x8, addend: 0x0, symName: __ZNKSt3__16vectorI6KostkaNS_9allocatorIS1_EEE14__annotate_newB7v160006Em, symObjAddr: 0x18F0, symBinAddr: 0x100004C60, symSize: 0xC8 }
  - { offsetInCU: 0xBC5B, offset: 0xBC5B, size: 0x8, addend: 0x0, symName: __ZNKSt3__16vectorI6KostkaNS_9allocatorIS1_EEE31__annotate_contiguous_containerB7v160006EPKvS6_S6_S6_, symObjAddr: 0x19C8, symBinAddr: 0x100004D38, symSize: 0x20 }
  - { offsetInCU: 0xBCAC, offset: 0xBCAC, size: 0x8, addend: 0x0, symName: __ZNKSt3__16vectorI6KostkaNS_9allocatorIS1_EEE4dataB7v160006Ev, symObjAddr: 0x19E8, symBinAddr: 0x100004D58, symSize: 0x28 }
  - { offsetInCU: 0xBCD1, offset: 0xBCD1, size: 0x8, addend: 0x0, symName: __ZNKSt3__116reverse_iteratorIP6KostkaEdeB7v160006Ev, symObjAddr: 0x1AB0, symBinAddr: 0x100004E20, symSize: 0x28 }
  - { offsetInCU: 0xBD04, offset: 0xBD04, size: 0x8, addend: 0x0, symName: __ZNSt3__116reverse_iteratorIP6KostkaEppB7v160006Ev, symObjAddr: 0x1AD8, symBinAddr: 0x100004E48, symSize: 0x20 }
  - { offsetInCU: 0xBD2E, offset: 0xBD2E, size: 0x8, addend: 0x0, symName: __ZNSt3__119__to_address_helperINS_16reverse_iteratorIP6KostkaEEvE6__callB7v160006ERKS4_, symObjAddr: 0x1B70, symBinAddr: 0x100004EE0, symSize: 0x4C }
  - { offsetInCU: 0xBD51, offset: 0xBD51, size: 0x8, addend: 0x0, symName: __ZNKSt3__116reverse_iteratorIP6KostkaEptB7v160006Ev, symObjAddr: 0x1BBC, symBinAddr: 0x100004F2C, symSize: 0x24 }
  - { offsetInCU: 0xBD99, offset: 0xBD99, size: 0x8, addend: 0x0, symName: __ZNKSt3__111__move_loopINS_17_ClassicAlgPolicyEEclB7v160006INS_16reverse_iteratorIP6KostkaEES7_S7_EENS_4pairIT_T1_EES9_T0_SA_, symObjAddr: 0x1E70, symBinAddr: 0x1000051E0, symSize: 0xA8 }
  - { offsetInCU: 0xBE08, offset: 0xBE08, size: 0x8, addend: 0x0, symName: __ZNSt3__18_IterOpsINS_17_ClassicAlgPolicyEE11__iter_moveB7v160006IRNS_16reverse_iteratorIP6KostkaEEEENS_9enable_ifIXsr12is_referenceIDTdeclsr3stdE7declvalIRT_EEEEE5valueEDTclsr3stdE4movedeclsr3stdE7declvalISB_EEEEE4typeEOSA_, symObjAddr: 0x2078, symBinAddr: 0x1000053E8, symSize: 0x28 }
  - { offsetInCU: 0xBE34, offset: 0xBE34, size: 0x8, addend: 0x0, symName: __ZNSt3__18_IterOpsINS_17_ClassicAlgPolicyEE25__validate_iter_referenceB7v160006IRNS_16reverse_iteratorIP6KostkaEEEEvv, symObjAddr: 0x20A0, symBinAddr: 0x100005410, symSize: 0x4 }
  - { offsetInCU: 0xBE52, offset: 0xBE52, size: 0x8, addend: 0x0, symName: __ZNSt3__118__unwrap_iter_implINS_16reverse_iteratorIP6KostkaEELb0EE8__unwrapB7v160006ES4_, symObjAddr: 0x20A4, symBinAddr: 0x100005414, symSize: 0x24 }
  - { offsetInCU: 0xBE75, offset: 0xBE75, size: 0x8, addend: 0x0, symName: __ZNSt3__14pairINS_16reverse_iteratorIP6KostkaEES4_EC1B7v160006ERKS4_S7_, symObjAddr: 0x20C8, symBinAddr: 0x100005438, symSize: 0x3C }
  - { offsetInCU: 0xBEBA, offset: 0xBEBA, size: 0x8, addend: 0x0, symName: __ZNSt3__14pairINS_16reverse_iteratorIP6KostkaEES4_EC2B7v160006ERKS4_S7_, symObjAddr: 0x2104, symBinAddr: 0x100005474, symSize: 0x34 }
  - { offsetInCU: 0xBEFF, offset: 0xBEFF, size: 0x8, addend: 0x0, symName: __ZNSt3__118__unwrap_iter_implINS_16reverse_iteratorIP6KostkaEELb0EE8__rewrapB7v160006ES4_S4_, symObjAddr: 0x2138, symBinAddr: 0x1000054A8, symSize: 0x2C }
  - { offsetInCU: 0xBF2D, offset: 0xBF2D, size: 0x8, addend: 0x0, symName: __ZNSt3__116reverse_iteratorIP6KostkaEC2B7v160006ES2_, symObjAddr: 0x2164, symBinAddr: 0x1000054D4, symSize: 0x28 }
  - { offsetInCU: 0xBF64, offset: 0xBF64, size: 0x8, addend: 0x0, symName: __ZNSt3__114__split_bufferI6KostkaRNS_9allocatorIS1_EEED2Ev, symObjAddr: 0x218C, symBinAddr: 0x1000054FC, symSize: 0x80 }
  - { offsetInCU: 0xBF8F, offset: 0xBF8F, size: 0x8, addend: 0x0, symName: __ZNSt3__114__split_bufferI6KostkaRNS_9allocatorIS1_EEE5clearB7v160006Ev, symObjAddr: 0x220C, symBinAddr: 0x10000557C, symSize: 0x28 }
  - { offsetInCU: 0xBFB4, offset: 0xBFB4, size: 0x8, addend: 0x0, symName: __ZNSt3__116allocator_traitsINS_9allocatorI6KostkaEEE10deallocateB7v160006ERS3_PS2_m, symObjAddr: 0x2234, symBinAddr: 0x1000055A4, symSize: 0x34 }
  - { offsetInCU: 0xBFF6, offset: 0xBFF6, size: 0x8, addend: 0x0, symName: __ZNKSt3__114__split_bufferI6KostkaRNS_9allocatorIS1_EEE8capacityB7v160006Ev, symObjAddr: 0x2268, symBinAddr: 0x1000055D8, symSize: 0x40 }
  - { offsetInCU: 0xC01B, offset: 0xC01B, size: 0x8, addend: 0x0, symName: __ZNSt3__114__split_bufferI6KostkaRNS_9allocatorIS1_EEE17__destruct_at_endB7v160006EPS1_, symObjAddr: 0x22A8, symBinAddr: 0x100005618, symSize: 0x2C }
  - { offsetInCU: 0xC04D, offset: 0xC04D, size: 0x8, addend: 0x0, symName: __ZNSt3__114__split_bufferI6KostkaRNS_9allocatorIS1_EEE17__destruct_at_endB7v160006EPS1_NS_17integral_constantIbLb0EEE, symObjAddr: 0x22D4, symBinAddr: 0x100005644, symSize: 0x94 }
  - { offsetInCU: 0xC08D, offset: 0xC08D, size: 0x8, addend: 0x0, symName: __ZNSt3__116allocator_traitsINS_9allocatorI6KostkaEEE7destroyB7v160006IS2_vEEvRS3_PT_, symObjAddr: 0x2368, symBinAddr: 0x1000056D8, symSize: 0x2C }
  - { offsetInCU: 0xC0CA, offset: 0xC0CA, size: 0x8, addend: 0x0, symName: __ZNSt3__19allocatorI6KostkaE7destroyB7v160006EPS1_, symObjAddr: 0x2394, symBinAddr: 0x100005704, symSize: 0x14 }
  - { offsetInCU: 0xC0FD, offset: 0xC0FD, size: 0x8, addend: 0x0, symName: __ZNSt3__19allocatorI6KostkaE10deallocateB7v160006EPS1_m, symObjAddr: 0x23A8, symBinAddr: 0x100005718, symSize: 0x74 }
  - { offsetInCU: 0xC13E, offset: 0xC13E, size: 0x8, addend: 0x0, symName: __ZNKSt3__114__split_bufferI6KostkaRNS_9allocatorIS1_EEE9__end_capB7v160006Ev, symObjAddr: 0x2498, symBinAddr: 0x100005808, symSize: 0x28 }
  - { offsetInCU: 0xC163, offset: 0xC163, size: 0x8, addend: 0x0, symName: __ZNKSt3__117__compressed_pairIP6KostkaRNS_9allocatorIS1_EEE5firstB7v160006Ev, symObjAddr: 0x24C0, symBinAddr: 0x100005830, symSize: 0x24 }
  - { offsetInCU: 0xC188, offset: 0xC188, size: 0x8, addend: 0x0, symName: __ZNSt3__16vectorI6KostkaNS_9allocatorIS1_EEE11__make_iterB7v160006EPS1_, symObjAddr: 0x24E4, symBinAddr: 0x100005854, symSize: 0x34 }
  - { offsetInCU: 0xC1BC, offset: 0xC1BC, size: 0x8, addend: 0x0, symName: __ZNSt3__111__wrap_iterIP6KostkaEC1B7v160006EPKvS2_, symObjAddr: 0x2518, symBinAddr: 0x100005888, symSize: 0x3C }
  - { offsetInCU: 0xC201, offset: 0xC201, size: 0x8, addend: 0x0, symName: __ZNSt3__111__wrap_iterIP6KostkaEC2B7v160006EPKvS2_, symObjAddr: 0x2554, symBinAddr: 0x1000058C4, symSize: 0x24 }
  - { offsetInCU: 0xC246, offset: 0xC246, size: 0x8, addend: 0x0, symName: __ZNSt3__111__wrap_iterIP6KostkaEpLB7v160006El, symObjAddr: 0x2578, symBinAddr: 0x1000058E8, symSize: 0x30 }
  - { offsetInCU: 0xC279, offset: 0xC279, size: 0x8, addend: 0x0, symName: __ZNKSt3__16vectorI6KostkaNS_9allocatorIS1_EEE6cbeginB7v160006Ev, symObjAddr: 0x25F0, symBinAddr: 0x100005960, symSize: 0x2C }
  - { offsetInCU: 0xC29E, offset: 0xC29E, size: 0x8, addend: 0x0, symName: __ZNSt3__16vectorI6KostkaNS_9allocatorIS1_EEE17__destruct_at_endB7v160006EPS1_, symObjAddr: 0x261C, symBinAddr: 0x10000598C, symSize: 0x88 }
  - { offsetInCU: 0xC2E1, offset: 0xC2E1, size: 0x8, addend: 0x0, symName: __ZNSt3__16vectorI6KostkaNS_9allocatorIS1_EEE27__invalidate_iterators_pastB7v160006EPS1_, symObjAddr: 0x26E4, symBinAddr: 0x100005A54, symSize: 0x14 }
  - { offsetInCU: 0xC317, offset: 0xC317, size: 0x8, addend: 0x0, symName: __ZNKSt3__111__wrap_iterIPK6KostkaE4baseB7v160006Ev, symObjAddr: 0x26F8, symBinAddr: 0x100005A68, symSize: 0x18 }
  - { offsetInCU: 0xC33B, offset: 0xC33B, size: 0x8, addend: 0x0, symName: __ZNKSt3__16vectorI6KostkaNS_9allocatorIS1_EEE5beginB7v160006Ev, symObjAddr: 0x2710, symBinAddr: 0x100005A80, symSize: 0x30 }
  - { offsetInCU: 0xC362, offset: 0xC362, size: 0x8, addend: 0x0, symName: __ZNKSt3__16vectorI6KostkaNS_9allocatorIS1_EEE11__make_iterB7v160006EPKS1_, symObjAddr: 0x2740, symBinAddr: 0x100005AB0, symSize: 0x34 }
  - { offsetInCU: 0xC396, offset: 0xC396, size: 0x8, addend: 0x0, symName: __ZNSt3__111__wrap_iterIPK6KostkaEC1B7v160006EPKvS3_, symObjAddr: 0x2774, symBinAddr: 0x100005AE4, symSize: 0x3C }
  - { offsetInCU: 0xC3DB, offset: 0xC3DB, size: 0x8, addend: 0x0, symName: __ZNSt3__111__wrap_iterIPK6KostkaEC2B7v160006EPKvS3_, symObjAddr: 0x27B0, symBinAddr: 0x100005B20, symSize: 0x24 }
  - { offsetInCU: 0xC420, offset: 0xC420, size: 0x8, addend: 0x0, symName: __ZNSt3__16vectorI6KostkaNS_9allocatorIS1_EEE22__base_destruct_at_endB7v160006EPS1_, symObjAddr: 0x27D4, symBinAddr: 0x100005B44, symSize: 0xA0 }
  - { offsetInCU: 0xC463, offset: 0xC463, size: 0x8, addend: 0x0, symName: __ZNKSt3__16vectorI6KostkaNS_9allocatorIS1_EEE17__annotate_shrinkB7v160006Em, symObjAddr: 0x2874, symBinAddr: 0x100005BE4, symSize: 0xD0 }
  - { offsetInCU: 0xC4BA, offset: 0xC4BA, size: 0x8, addend: 0x0, symName: __ZNKSt3__114__move_trivialclB7v160006I6KostkaS2_Li0EEENS_4pairIPT_PT0_EES5_S5_S7_, symObjAddr: 0x2AF0, symBinAddr: 0x100005E60, symSize: 0x48 }
  - { offsetInCU: 0xC521, offset: 0xC521, size: 0x8, addend: 0x0, symName: __ZNSt3__14pairIP6KostkaS2_EC1B7v160006ERKS2_S5_, symObjAddr: 0x2CD4, symBinAddr: 0x100006044, symSize: 0x3C }
  - { offsetInCU: 0xC566, offset: 0xC566, size: 0x8, addend: 0x0, symName: __ZNSt3__14pairIP6KostkaS2_EC2B7v160006ERKS2_S5_, symObjAddr: 0x2D10, symBinAddr: 0x100006080, symSize: 0x34 }
  - { offsetInCU: 0xC5AB, offset: 0xC5AB, size: 0x8, addend: 0x0, symName: __ZNSt3__118__unwrap_iter_implIP6KostkaLb1EE8__unwrapB7v160006ES2_, symObjAddr: 0x2D44, symBinAddr: 0x1000060B4, symSize: 0x24 }
  - { offsetInCU: 0xC5CE, offset: 0xC5CE, size: 0x8, addend: 0x0, symName: __ZNSt3__118__unwrap_iter_implIP6KostkaLb1EE8__rewrapB7v160006ES2_S2_, symObjAddr: 0x2D68, symBinAddr: 0x1000060D8, symSize: 0x58 }
  - { offsetInCU: 0xC5FF, offset: 0xC5FF, size: 0x8, addend: 0x0, symName: __ZNSt3__111__wrap_iterIPK6KostkaEC2B7v160006IPS1_EERKNS0_IT_EEPNS_9enable_ifIXsr14is_convertibleIS7_S3_EE5valueEvE4typeE, symObjAddr: 0x2DC0, symBinAddr: 0x100006130, symSize: 0x40 }
  - { offsetInCU: 0xC64A, offset: 0xC64A, size: 0x8, addend: 0x0, symName: __ZNKSt3__111__wrap_iterIP6KostkaE4baseB7v160006Ev, symObjAddr: 0x2E00, symBinAddr: 0x100006170, symSize: 0x18 }
  - { offsetInCU: 0xC66F, offset: 0xC66F, size: 0x8, addend: 0x0, symName: __ZNSt3__16vectorI6KostkaNS_9allocatorIS1_EEEC2ERKS4_, symObjAddr: 0x2E18, symBinAddr: 0x100006188, symSize: 0x11C }
  - { offsetInCU: 0xC6CD, offset: 0xC6CD, size: 0x8, addend: 0x0, symName: __ZNSt3__116allocator_traitsINS_9allocatorI6KostkaEEE37select_on_container_copy_constructionB7v160006IS3_vvEES3_RKS3_, symObjAddr: 0x2F34, symBinAddr: 0x1000062A4, symSize: 0x10 }
  - { offsetInCU: 0xC701, offset: 0xC701, size: 0x8, addend: 0x0, symName: __ZNSt3__117__compressed_pairIP6KostkaNS_9allocatorIS1_EEEC1B7v160006IDnS4_EEOT_OT0_, symObjAddr: 0x2F44, symBinAddr: 0x1000062B4, symSize: 0x3C }
  - { offsetInCU: 0xC758, offset: 0xC758, size: 0x8, addend: 0x0, symName: __ZNSt3__16vectorI6KostkaNS_9allocatorIS1_EEE16__destroy_vectorC1ERS4_, symObjAddr: 0x2FC0, symBinAddr: 0x100006330, symSize: 0x34 }
  - { offsetInCU: 0xC790, offset: 0xC790, size: 0x8, addend: 0x0, symName: __ZNSt3__16vectorI6KostkaNS_9allocatorIS1_EEE11__vallocateB7v160006Em, symObjAddr: 0x3004, symBinAddr: 0x100006374, symSize: 0xB4 }
  - { offsetInCU: 0xC7D2, offset: 0xC7D2, size: 0x8, addend: 0x0, symName: __ZNSt3__16vectorI6KostkaNS_9allocatorIS1_EEE18__construct_at_endIPS1_Li0EEEvT_S7_m, symObjAddr: 0x30B8, symBinAddr: 0x100006428, symSize: 0x94 }
  - { offsetInCU: 0xC844, offset: 0xC844, size: 0x8, addend: 0x0, symName: __ZNSt3__128__exception_guard_exceptionsINS_6vectorI6KostkaNS_9allocatorIS2_EEE16__destroy_vectorEE10__completeB7v160006Ev, symObjAddr: 0x314C, symBinAddr: 0x1000064BC, symSize: 0x1C }
  - { offsetInCU: 0xC869, offset: 0xC869, size: 0x8, addend: 0x0, symName: __ZNSt3__128__exception_guard_exceptionsINS_6vectorI6KostkaNS_9allocatorIS2_EEE16__destroy_vectorEED1B7v160006Ev, symObjAddr: 0x3168, symBinAddr: 0x1000064D8, symSize: 0x2C }
  - { offsetInCU: 0xC892, offset: 0xC892, size: 0x8, addend: 0x0, symName: __ZNSt3__117__compressed_pairIP6KostkaNS_9allocatorIS1_EEEC2B7v160006IDnS4_EEOT_OT0_, symObjAddr: 0x3194, symBinAddr: 0x100006504, symSize: 0x44 }
  - { offsetInCU: 0xC8E9, offset: 0xC8E9, size: 0x8, addend: 0x0, symName: __ZNSt3__122__compressed_pair_elemINS_9allocatorI6KostkaEELi1ELb1EEC2B7v160006IS3_vEEOT_, symObjAddr: 0x31D8, symBinAddr: 0x100006548, symSize: 0x18 }
  - { offsetInCU: 0xC92A, offset: 0xC92A, size: 0x8, addend: 0x0, symName: __ZNSt3__128__exception_guard_exceptionsINS_6vectorI6KostkaNS_9allocatorIS2_EEE16__destroy_vectorEEC1B7v160006ES6_, symObjAddr: 0x31F0, symBinAddr: 0x100006560, symSize: 0x34 }
  - { offsetInCU: 0xC961, offset: 0xC961, size: 0x8, addend: 0x0, symName: __ZNSt3__128__exception_guard_exceptionsINS_6vectorI6KostkaNS_9allocatorIS2_EEE16__destroy_vectorEEC2B7v160006ES6_, symObjAddr: 0x3224, symBinAddr: 0x100006594, symSize: 0x24 }
  - { offsetInCU: 0xC998, offset: 0xC998, size: 0x8, addend: 0x0, symName: __ZNSt3__16vectorI6KostkaNS_9allocatorIS1_EEE16__destroy_vectorC2ERS4_, symObjAddr: 0x3248, symBinAddr: 0x1000065B8, symSize: 0x20 }
  - { offsetInCU: 0xC9D0, offset: 0xC9D0, size: 0x8, addend: 0x0, symName: __ZNSt3__129_AllocatorDestroyRangeReverseINS_9allocatorI6KostkaEEPS2_EC1B7v160006ERS3_RS4_S7_, symObjAddr: 0x33B0, symBinAddr: 0x100006720, symSize: 0x44 }
  - { offsetInCU: 0xCA26, offset: 0xCA26, size: 0x8, addend: 0x0, symName: __ZNSt3__116allocator_traitsINS_9allocatorI6KostkaEEE9constructB7v160006IS2_JRS2_EvEEvRS3_PT_DpOT0_, symObjAddr: 0x33F4, symBinAddr: 0x100006764, symSize: 0x34 }
  - { offsetInCU: 0xCA7D, offset: 0xCA7D, size: 0x8, addend: 0x0, symName: __ZNSt3__128__exception_guard_exceptionsINS_29_AllocatorDestroyRangeReverseINS_9allocatorI6KostkaEEPS3_EEE10__completeB7v160006Ev, symObjAddr: 0x3428, symBinAddr: 0x100006798, symSize: 0x1C }
  - { offsetInCU: 0xCAA2, offset: 0xCAA2, size: 0x8, addend: 0x0, symName: __ZNSt3__128__exception_guard_exceptionsINS_29_AllocatorDestroyRangeReverseINS_9allocatorI6KostkaEEPS3_EEED1B7v160006Ev, symObjAddr: 0x3444, symBinAddr: 0x1000067B4, symSize: 0x2C }
  - { offsetInCU: 0xCACB, offset: 0xCACB, size: 0x8, addend: 0x0, symName: __ZNSt3__128__exception_guard_exceptionsINS_29_AllocatorDestroyRangeReverseINS_9allocatorI6KostkaEEPS3_EEEC1B7v160006ES6_, symObjAddr: 0x3470, symBinAddr: 0x1000067E0, symSize: 0x34 }
  - { offsetInCU: 0xCB03, offset: 0xCB03, size: 0x8, addend: 0x0, symName: __ZNSt3__128__exception_guard_exceptionsINS_29_AllocatorDestroyRangeReverseINS_9allocatorI6KostkaEEPS3_EEEC2B7v160006ES6_, symObjAddr: 0x34A4, symBinAddr: 0x100006814, symSize: 0x30 }
  - { offsetInCU: 0xCB3B, offset: 0xCB3B, size: 0x8, addend: 0x0, symName: __ZNSt3__129_AllocatorDestroyRangeReverseINS_9allocatorI6KostkaEEPS2_EC2B7v160006ERS3_RS4_S7_, symObjAddr: 0x34D4, symBinAddr: 0x100006844, symSize: 0x38 }
  - { offsetInCU: 0xCB91, offset: 0xCB91, size: 0x8, addend: 0x0, symName: __ZNSt3__19allocatorI6KostkaE9constructB7v160006IS1_JRS1_EEEvPT_DpOT0_, symObjAddr: 0x350C, symBinAddr: 0x10000687C, symSize: 0x30 }
  - { offsetInCU: 0xCBE6, offset: 0xCBE6, size: 0x8, addend: 0x0, symName: __ZNSt3__128__exception_guard_exceptionsINS_29_AllocatorDestroyRangeReverseINS_9allocatorI6KostkaEEPS3_EEED2B7v160006Ev, symObjAddr: 0x353C, symBinAddr: 0x1000068AC, symSize: 0x48 }
  - { offsetInCU: 0xCC0F, offset: 0xCC0F, size: 0x8, addend: 0x0, symName: __ZNKSt3__129_AllocatorDestroyRangeReverseINS_9allocatorI6KostkaEEPS2_EclB7v160006Ev, symObjAddr: 0x3584, symBinAddr: 0x1000068F4, symSize: 0x68 }
  - { offsetInCU: 0xCC34, offset: 0xCC34, size: 0x8, addend: 0x0, symName: __ZNSt3__128__exception_guard_exceptionsINS_6vectorI6KostkaNS_9allocatorIS2_EEE16__destroy_vectorEED2B7v160006Ev, symObjAddr: 0x365C, symBinAddr: 0x1000069CC, symSize: 0x48 }
  - { offsetInCU: 0xCC5D, offset: 0xCC5D, size: 0x8, addend: 0x0, symName: __ZNSt3__16vectorI6KostkaNS_9allocatorIS1_EEE16__destroy_vectorclB7v160006Ev, symObjAddr: 0x36A4, symBinAddr: 0x100006A14, symSize: 0x9C }
  - { offsetInCU: 0xCC82, offset: 0xCC82, size: 0x8, addend: 0x0, symName: __ZNSt3__16vectorI6KostkaNS_9allocatorIS1_EEE7__clearB7v160006Ev, symObjAddr: 0x3750, symBinAddr: 0x100006AC0, symSize: 0x28 }
  - { offsetInCU: 0xCCA7, offset: 0xCCA7, size: 0x8, addend: 0x0, symName: __ZNSt3__16vectorI6KostkaNS_9allocatorIS1_EEED2B7v160006Ev, symObjAddr: 0x3778, symBinAddr: 0x100006AE8, symSize: 0x3C }
  - { offsetInCU: 0xCCD0, offset: 0xCCD0, size: 0x8, addend: 0x0, symName: __ZNSt3__16vectorI6KostkaNS_9allocatorIS1_EEEC2B7v160006Ev, symObjAddr: 0x37B4, symBinAddr: 0x100006B24, symSize: 0x4C }
  - { offsetInCU: 0xCCFE, offset: 0xCCFE, size: 0x8, addend: 0x0, symName: __ZNSt3__117__compressed_pairIP6KostkaNS_9allocatorIS1_EEEC1B7v160006IDnNS_18__default_init_tagEEEOT_OT0_, symObjAddr: 0x3800, symBinAddr: 0x100006B70, symSize: 0x3C }
  - { offsetInCU: 0xCD55, offset: 0xCD55, size: 0x8, addend: 0x0, symName: __ZNSt3__117__compressed_pairIP6KostkaNS_9allocatorIS1_EEEC2B7v160006IDnNS_18__default_init_tagEEEOT_OT0_, symObjAddr: 0x383C, symBinAddr: 0x100006BAC, symSize: 0x40 }
  - { offsetInCU: 0xCDAC, offset: 0xCDAC, size: 0x8, addend: 0x0, symName: __ZNSt3__122__compressed_pair_elemINS_9allocatorI6KostkaEELi1ELb1EEC2B7v160006ENS_18__default_init_tagE, symObjAddr: 0x387C, symBinAddr: 0x100006BEC, symSize: 0x2C }
  - { offsetInCU: 0xCDE0, offset: 0xCDE0, size: 0x8, addend: 0x0, symName: __ZNSt3__19allocatorI6KostkaEC2B7v160006Ev, symObjAddr: 0x38A8, symBinAddr: 0x100006C18, symSize: 0x2C }
  - { offsetInCU: 0xCE09, offset: 0xCE09, size: 0x8, addend: 0x0, symName: __ZNSt3__116__non_trivial_ifILb1ENS_9allocatorI6KostkaEEEC2B7v160006Ev, symObjAddr: 0x38D4, symBinAddr: 0x100006C44, symSize: 0x14 }
  - { offsetInCU: 0xCE31, offset: 0xCE31, size: 0x8, addend: 0x0, symName: __ZNKSt3__19basic_iosIcNS_11char_traitsIcEEE5widenB7v160006Ec, symObjAddr: 0x38E8, symBinAddr: 0x100006C58, symSize: 0x8C }
  - { offsetInCU: 0xCE9E, offset: 0xCE9E, size: 0x8, addend: 0x0, symName: __ZNKSt3__15ctypeIcE5widenB7v160006Ec, symObjAddr: 0x39A0, symBinAddr: 0x100006D10, symSize: 0x38 }
  - { offsetInCU: 0xCED2, offset: 0xCED2, size: 0x8, addend: 0x0, symName: __ZNSt3__111char_traitsIcE6lengthEPKc, symObjAddr: 0x3C14, symBinAddr: 0x100006F84, symSize: 0x48 }
  - { offsetInCU: 0xCF13, offset: 0xCF13, size: 0x8, addend: 0x0, symName: __ZNKSt3__113basic_ostreamIcNS_11char_traitsIcEEE6sentrycvbB7v160006Ev, symObjAddr: 0x3C5C, symBinAddr: 0x100006FCC, symSize: 0x1C }
  - { offsetInCU: 0xCF38, offset: 0xCF38, size: 0x8, addend: 0x0, symName: __ZNSt3__119ostreambuf_iteratorIcNS_11char_traitsIcEEEC1B7v160006ERNS_13basic_ostreamIcS2_EE, symObjAddr: 0x3EC0, symBinAddr: 0x100007230, symSize: 0x34 }
  - { offsetInCU: 0xCF6F, offset: 0xCF6F, size: 0x8, addend: 0x0, symName: __ZNKSt3__18ios_base5flagsB7v160006Ev, symObjAddr: 0x3EF4, symBinAddr: 0x100007264, symSize: 0x18 }
  - { offsetInCU: 0xCF95, offset: 0xCF95, size: 0x8, addend: 0x0, symName: __ZNKSt3__19basic_iosIcNS_11char_traitsIcEEE4fillB7v160006Ev, symObjAddr: 0x3F0C, symBinAddr: 0x10000727C, symSize: 0x64 }
  - { offsetInCU: 0xCFBC, offset: 0xCFBC, size: 0x8, addend: 0x0, symName: __ZNKSt3__119ostreambuf_iteratorIcNS_11char_traitsIcEEE6failedB7v160006Ev, symObjAddr: 0x3F70, symBinAddr: 0x1000072E0, symSize: 0x24 }
  - { offsetInCU: 0xCFE1, offset: 0xCFE1, size: 0x8, addend: 0x0, symName: __ZNSt3__19basic_iosIcNS_11char_traitsIcEEE8setstateB7v160006Ej, symObjAddr: 0x3F94, symBinAddr: 0x100007304, symSize: 0x2C }
  - { offsetInCU: 0xD015, offset: 0xD015, size: 0x8, addend: 0x0, symName: __ZNKSt3__18ios_base5widthB7v160006Ev, symObjAddr: 0x3FC0, symBinAddr: 0x100007330, symSize: 0x18 }
  - { offsetInCU: 0xD03C, offset: 0xD03C, size: 0x8, addend: 0x0, symName: __ZNSt3__115basic_streambufIcNS_11char_traitsIcEEE5sputnB7v160006EPKcl, symObjAddr: 0x3FD8, symBinAddr: 0x100007348, symSize: 0x3C }
  - { offsetInCU: 0xD07D, offset: 0xD07D, size: 0x8, addend: 0x0, symName: __ZNSt3__112basic_stringIcNS_11char_traitsIcEENS_9allocatorIcEEEC1B7v160006Emc, symObjAddr: 0x4014, symBinAddr: 0x100007384, symSize: 0x3C }
  - { offsetInCU: 0xD0C4, offset: 0xD0C4, size: 0x8, addend: 0x0, symName: __ZNKSt3__112basic_stringIcNS_11char_traitsIcEENS_9allocatorIcEEE4dataB7v160006Ev, symObjAddr: 0x4050, symBinAddr: 0x1000073C0, symSize: 0x28 }
  - { offsetInCU: 0xD0E9, offset: 0xD0E9, size: 0x8, addend: 0x0, symName: __ZNSt3__18ios_base5widthB7v160006El, symObjAddr: 0x4078, symBinAddr: 0x1000073E8, symSize: 0x2C }
  - { offsetInCU: 0xD12E, offset: 0xD12E, size: 0x8, addend: 0x0, symName: __ZNSt3__112basic_stringIcNS_11char_traitsIcEENS_9allocatorIcEEEC2B7v160006Emc, symObjAddr: 0x40A4, symBinAddr: 0x100007414, symSize: 0x54 }
  - { offsetInCU: 0xD175, offset: 0xD175, size: 0x8, addend: 0x0, symName: __ZNSt3__117__compressed_pairINS_12basic_stringIcNS_11char_traitsIcEENS_9allocatorIcEEE5__repES5_EC1B7v160006INS_18__default_init_tagESA_EEOT_OT0_, symObjAddr: 0x40F8, symBinAddr: 0x100007468, symSize: 0x3C }
  - { offsetInCU: 0xD1CC, offset: 0xD1CC, size: 0x8, addend: 0x0, symName: __ZNSt3__117__compressed_pairINS_12basic_stringIcNS_11char_traitsIcEENS_9allocatorIcEEE5__repES5_EC2B7v160006INS_18__default_init_tagESA_EEOT_OT0_, symObjAddr: 0x4144, symBinAddr: 0x1000074B4, symSize: 0x3C }
  - { offsetInCU: 0xD223, offset: 0xD223, size: 0x8, addend: 0x0, symName: __ZNSt3__122__compressed_pair_elemINS_12basic_stringIcNS_11char_traitsIcEENS_9allocatorIcEEE5__repELi0ELb0EEC2B7v160006ENS_18__default_init_tagE, symObjAddr: 0x4180, symBinAddr: 0x1000074F0, symSize: 0x14 }
  - { offsetInCU: 0xD257, offset: 0xD257, size: 0x8, addend: 0x0, symName: __ZNSt3__122__compressed_pair_elemINS_9allocatorIcEELi1ELb1EEC2B7v160006ENS_18__default_init_tagE, symObjAddr: 0x4194, symBinAddr: 0x100007504, symSize: 0x2C }
  - { offsetInCU: 0xD28B, offset: 0xD28B, size: 0x8, addend: 0x0, symName: __ZNSt3__19allocatorIcEC2B7v160006Ev, symObjAddr: 0x41C0, symBinAddr: 0x100007530, symSize: 0x2C }
  - { offsetInCU: 0xD2B4, offset: 0xD2B4, size: 0x8, addend: 0x0, symName: __ZNSt3__116__non_trivial_ifILb1ENS_9allocatorIcEEEC2B7v160006Ev, symObjAddr: 0x41EC, symBinAddr: 0x10000755C, symSize: 0x14 }
  - { offsetInCU: 0xD2DD, offset: 0xD2DD, size: 0x8, addend: 0x0, symName: __ZNKSt3__112basic_stringIcNS_11char_traitsIcEENS_9allocatorIcEEE13__get_pointerB7v160006Ev, symObjAddr: 0x4214, symBinAddr: 0x100007584, symSize: 0x54 }
  - { offsetInCU: 0xD302, offset: 0xD302, size: 0x8, addend: 0x0, symName: __ZNKSt3__112basic_stringIcNS_11char_traitsIcEENS_9allocatorIcEEE9__is_longB7v160006Ev, symObjAddr: 0x4268, symBinAddr: 0x1000075D8, symSize: 0x74 }
  - { offsetInCU: 0xD327, offset: 0xD327, size: 0x8, addend: 0x0, symName: __ZNKSt3__112basic_stringIcNS_11char_traitsIcEENS_9allocatorIcEEE18__get_long_pointerB7v160006Ev, symObjAddr: 0x42DC, symBinAddr: 0x10000764C, symSize: 0x28 }
  - { offsetInCU: 0xD34C, offset: 0xD34C, size: 0x8, addend: 0x0, symName: __ZNKSt3__112basic_stringIcNS_11char_traitsIcEENS_9allocatorIcEEE19__get_short_pointerB7v160006Ev, symObjAddr: 0x4304, symBinAddr: 0x100007674, symSize: 0x28 }
  - { offsetInCU: 0xD371, offset: 0xD371, size: 0x8, addend: 0x0, symName: __ZNKSt3__117__compressed_pairINS_12basic_stringIcNS_11char_traitsIcEENS_9allocatorIcEEE5__repES5_E5firstB7v160006Ev, symObjAddr: 0x432C, symBinAddr: 0x10000769C, symSize: 0x24 }
  - { offsetInCU: 0xD396, offset: 0xD396, size: 0x8, addend: 0x0, symName: __ZNKSt3__122__compressed_pair_elemINS_12basic_stringIcNS_11char_traitsIcEENS_9allocatorIcEEE5__repELi0ELb0EE5__getB7v160006Ev, symObjAddr: 0x4350, symBinAddr: 0x1000076C0, symSize: 0x14 }
  - { offsetInCU: 0xD3BB, offset: 0xD3BB, size: 0x8, addend: 0x0, symName: __ZNSt3__114pointer_traitsIPKcE10pointer_toB7v160006ERS1_, symObjAddr: 0x4364, symBinAddr: 0x1000076D4, symSize: 0x14 }
  - { offsetInCU: 0xD3DE, offset: 0xD3DE, size: 0x8, addend: 0x0, symName: __ZNSt3__119ostreambuf_iteratorIcNS_11char_traitsIcEEEC2B7v160006ERNS_13basic_ostreamIcS2_EE, symObjAddr: 0x4378, symBinAddr: 0x1000076E8, symSize: 0x68 }
  - { offsetInCU: 0xD414, offset: 0xD414, size: 0x8, addend: 0x0, symName: __ZNKSt3__19basic_iosIcNS_11char_traitsIcEEE5rdbufB7v160006Ev, symObjAddr: 0x43E0, symBinAddr: 0x100007750, symSize: 0x24 }
  - { offsetInCU: 0xD43B, offset: 0xD43B, size: 0x8, addend: 0x0, symName: __ZNKSt3__18ios_base5rdbufB7v160006Ev, symObjAddr: 0x4404, symBinAddr: 0x100007774, symSize: 0x18 }
  - { offsetInCU: 0xD460, offset: 0xD460, size: 0x8, addend: 0x0, symName: __ZNSt3__111char_traitsIcE11eq_int_typeEii, symObjAddr: 0x441C, symBinAddr: 0x10000778C, symSize: 0x28 }
  - { offsetInCU: 0xD491, offset: 0xD491, size: 0x8, addend: 0x0, symName: __ZNSt3__111char_traitsIcE3eofEv, symObjAddr: 0x4444, symBinAddr: 0x1000077B4, symSize: 0x8 }
  - { offsetInCU: 0xD4A4, offset: 0xD4A4, size: 0x8, addend: 0x0, symName: __ZNSt3__18ios_base8setstateB7v160006Ej, symObjAddr: 0x444C, symBinAddr: 0x1000077BC, symSize: 0x34 }
...
